(dp0
I1
(dp1
(S'CSE342*'
p2
S'semester'
p3
tp4
(I10
I6
tp5
s(S'MSC491'
p6
g3
tp7
(I0
I0
tp8
s(S'CSE398A-1'
p9
g3
tp10
g8
s(S'HSS201*'
p11
g3
tp12
(I10
I4
tp13
s(S'CSE607'
p14
g3
tp15
g8
s(S'CSE499A'
p16
g3
tp17
g8
s(S'MTH202'
p18
g3
tp19
g8
s(S'CSE101'
p20
g3
tp21
(I10
I1
tp22
s(S'CSE524'
p23
g3
tp24
g8
s(S'CSE330'
p25
g3
tp26
g8
s(S'FIN402'
p27
g3
tp28
g8
s(S'ECO301'
p29
g3
tp30
(I9
I8
tp31
s(S'CSE694D'
p32
g3
tp33
g8
s(S'BTY301'
p34
g3
tp35
g8
s(S'CSE694E'
p36
g3
tp37
g8
s(S'COM301'
p38
g3
tp39
(I8
I6
tp40
s(S'COM201'
p41
g3
tp42
g8
s(S'CSE790'
p43
g3
tp44
g8
s(S'ECE501'
p45
g3
tp46
g8
s(S'CSE648'
p47
g3
tp48
g8
s(S'PHY301'
p49
g3
tp50
g8
s(S'CSE202'
p51
g3
tp52
(I10
I4
tp53
s(S'CSE499B'
p54
g3
tp55
g8
s(S'MTH101'
p56
g3
tp57
(I10
I5
tp58
s(S'CSE112'
p59
g3
tp60
(I10
I2
tp61
s(S'CSE508'
p62
g3
tp63
(I9
I6
tp64
s(S'HSS202*'
p65
g3
tp66
g8
s(S'CSE999'
p67
g3
tp68
g8
s(S'HSS206*'
p69
g3
tp70
g8
s(S'CSE122*'
p71
g3
tp72
(I10
I2
tp73
s(S'CSE546'
p74
g3
tp75
(I10
I6
tp76
s(S'CSE102'
p77
g3
tp78
(I8
I2
tp79
s(S'ENT401'
p80
g3
tp81
(I10
I7
tp82
s(S'HSS205*'
p83
g3
tp84
g8
s(S'CSE605'
p85
g3
tp86
g8
s(S'HSS204*'
p87
g3
tp88
(I10
I8
tp89
s(S'ESC201'
p90
g3
tp91
(I10
I3
tp92
s(S'CSE399'
p93
g3
tp94
(I9
I7
tp95
s(S'CSE537'
p96
g3
tp97
g8
s(S'CSE131-1*'
p98
g3
tp99
(I10
I2
tp100
s(S'PHY302'
p101
g3
tp102
g8
s(S'MTH201'
p103
g3
tp104
(I9
I3
tp105
s(S'ECO303'
p106
g3
tp107
g8
s(S'CSE310'
p108
g3
tp109
g8
s(S'CSE344'
p110
g3
tp111
g8
s(S'COM101'
p112
g3
tp113
(I10
I1
tp114
s(S'CSE535'
p115
g3
tp116
(I8
I5
tp117
s(S'CSE549'
p118
g3
tp119
g8
s(S'PHS501'
p120
g3
tp121
g8
s(S'MSC481'
p122
g3
tp123
g8
s(S'CSE505'
p124
g3
tp125
(I9
I5
tp126
s(S'CSE320'
p127
g3
tp128
g8
s(S'CSE121'
p129
g3
tp130
(I8
I1
tp131
s(S'CSE232'
p132
g3
tp133
(I9
I4
tp134
s(S'MSC492'
p135
g3
tp136
g8
s(S'CSE111'
p137
g3
tp138
(I10
I1
tp139
s(S'ENT402'
p140
g3
tp141
g8
s(S'CSE390'
p142
g3
tp143
g8
s(S'CSE498'
p144
g3
tp145
g8
s(S'CSE539'
p146
g3
tp147
g8
s(S'ENV301'
p148
g3
tp149
(I10
I8
tp150
s(S'CSE694C'
p151
g3
tp152
(I10
I7
tp153
s(S'CSE222'
p154
g3
tp155
(I8
I4
tp156
s(S'CSE647'
p157
g3
tp158
g8
s(S'CSE201'
p159
g3
tp160
(I10
I3
tp161
s(S'FIN401'
p162
g3
tp163
(I9
I7
tp164
s(S'CSE500'
p165
g3
tp166
g8
s(S'CSE345'
p167
g3
tp168
(I9
I5
tp169
s(S'MSC482'
p170
g3
tp171
(I10
I2
tp172
s(S'HSS207*'
p173
g3
tp174
g8
s(S'CSE606'
p175
g3
tp176
(I9
I8
tp177
s(S'CSE691A'
p178
g3
tp179
g8
s(S'CSE540*'
p180
g3
tp181
(I10
I5
tp182
s(S'CSE522'
p183
g3
tp184
g8
s(S'CSE398A'
p185
g3
tp186
g8
s(S'CSE300'
p187
g3
tp188
(I9
I5
tp189
s(S'COM201-1'
p190
g3
tp191
(I9
I3
tp192
s(S'CSE645'
p193
g3
tp194
(I7
I6
tp195
s(S'CSE340*'
p196
g3
tp197
g8
s(S'CSE506'
p198
g3
tp199
g8
s(S'HSS101*'
p200
g3
tp201
(I6
I2
tp202
s(S'CSE343'
p203
g3
tp204
(I10
I7
tp205
s(S'CSE538*'
p206
g3
tp207
g8
s(S'CSE507'
p208
g3
tp209
g8
s(S'ECO999'
p210
g3
tp211
g8
s(S'CSE499'
p212
g3
tp213
(I10
I8
tp214
s(S'ECE510'
p215
g3
tp216
g8
s(S'DES301'
p217
g3
tp218
g8
s(S'CSE231'
p219
g3
tp220
(I10
I3
tp221
s(S'ESC202'
p222
g3
tp223
(I9
I4
tp224
s(S'CSE131'
p225
g3
tp226
g8
s(S'CSE511'
p227
g3
tp228
g8
ssI2
(dp229
g4
(I7
I6
tp230
sg7
g8
sg10
g8
sg12
g8
sg15
(I8
I8
tp231
sg17
g8
sg19
g8
sg21
(I4
I1
tp232
sg24
g8
sg26
g8
sg28
g8
sg30
g8
sg33
g8
sg35
(I8
I5
tp233
sg37
g8
sg39
(I10
I6
tp234
sg42
g8
sg44
g8
sg46
g8
sg48
g8
sg50
g8
sg52
(I7
I4
tp235
sg55
g8
sg57
(I7
I6
tp236
sg60
(I6
I2
tp237
sg63
(I6
I6
tp238
sg66
(I6
I4
tp239
sg68
g8
sg70
(I8
I8
tp240
sg72
(I6
I1
tp241
sg75
g8
sg78
(I4
I2
tp242
sg81
(I9
I7
tp243
sg84
g8
sg86
g8
sg88
(I8
I6
tp244
sg91
(I6
I3
tp245
sg94
g8
sg97
g8
sg99
(I6
I2
tp246
sg102
g8
sg104
(I6
I3
tp247
sg107
g8
sg109
g8
sg111
g8
sg113
(I4
I1
tp248
sg116
(I4
I5
tp249
sg119
g8
sg121
g8
sg123
g8
sg125
(I8
I5
tp250
sg128
g8
sg130
(I6
I1
tp251
sg133
(I5
I4
tp252
sg136
(I10
I3
tp253
sg138
(I8
I1
tp254
sg141
g8
sg143
g8
sg145
g8
sg147
g8
sg149
g8
sg152
(I0
I7
tp255
sg155
(I6
I4
tp256
sg158
g8
sg160
(I6
I3
tp257
sg163
(I7
I7
tp258
sg166
(I8
I7
tp259
sg168
(I8
I7
tp260
sg171
(I10
I3
tp261
sg174
g8
sg176
(I8
I8
tp262
sg179
g8
sg181
(I9
I5
tp263
sg184
g8
sg186
g8
sg188
(I8
I5
tp264
sg191
(I6
I3
tp265
sg194
g8
sg197
g8
sg199
g8
sg201
(I4
I2
tp266
sg204
(I6
I7
tp267
sg207
g8
sg209
g8
sg211
g8
sg213
g8
sg216
g8
sg218
(I9
I8
tp268
sg220
(I6
I3
tp269
sg223
(I6
I4
tp270
sg226
g8
sg228
g8
ssI3
(dp271
g4
g8
sg7
g8
sg10
g8
sg12
g8
sg15
g8
sg17
g8
sg19
g8
sg21
(I2
I1
tp272
sg24
g8
sg26
g8
sg28
g8
sg30
g8
sg33
g8
sg35
g8
sg37
g8
sg39
g8
sg42
g8
sg44
g8
sg46
g8
sg48
g8
sg50
g8
sg52
g8
sg55
g8
sg57
g8
sg60
(I2
I2
tp273
sg63
g8
sg66
g8
sg68
g8
sg70
g8
sg72
(I2
I2
tp274
sg75
g8
sg78
(I2
I2
tp275
sg81
g8
sg84
g8
sg86
g8
sg88
g8
sg91
g8
sg94
g8
sg97
g8
sg99
(I4
I2
tp276
sg102
g8
sg104
g8
sg107
g8
sg109
g8
sg111
g8
sg113
(I2
I1
tp277
sg116
g8
sg119
g8
sg121
g8
sg123
g8
sg125
g8
sg128
g8
sg130
(I2
I1
tp278
sg133
g8
sg136
g8
sg138
(I2
I1
tp279
sg141
g8
sg143
g8
sg145
g8
sg147
g8
sg149
g8
sg152
g8
sg155
g8
sg158
g8
sg160
g8
sg163
g8
sg166
g8
sg168
g8
sg171
g8
sg174
g8
sg176
g8
sg179
g8
sg181
g8
sg184
g8
sg186
g8
sg188
g8
sg191
g8
sg194
g8
sg197
g8
sg199
g8
sg201
(I4
I2
tp280
sg204
g8
sg207
g8
sg209
g8
sg211
g8
sg213
g8
sg216
g8
sg218
g8
sg220
g8
sg223
g8
sg226
g8
sg228
g8
ssI4
(dp281
g4
g8
sg7
g8
sg10
g8
sg12
g8
sg15
g8
sg17
g8
sg19
g8
sg21
(I4
I1
tp282
sg24
g8
sg26
g8
sg28
g8
sg30
g8
sg33
g8
sg35
g8
sg37
g8
sg39
g8
sg42
g8
sg44
g8
sg46
g8
sg48
g8
sg50
g8
sg52
(I4
I4
tp283
sg55
g8
sg57
g8
sg60
(I2
I2
tp284
sg63
g8
sg66
(I4
I4
tp285
sg68
g8
sg70
g8
sg72
(I2
I2
tp286
sg75
g8
sg78
(I2
I2
tp287
sg81
g8
sg84
g8
sg86
g8
sg88
g8
sg91
(I4
I3
tp288
sg94
g8
sg97
g8
sg99
(I4
I2
tp289
sg102
g8
sg104
(I2
I3
tp290
sg107
g8
sg109
g8
sg111
g8
sg113
(I6
I1
tp291
sg116
g8
sg119
g8
sg121
g8
sg123
g8
sg125
g8
sg128
g8
sg130
(I4
I1
tp292
sg133
(I2
I4
tp293
sg136
g8
sg138
(I4
I1
tp294
sg141
g8
sg143
g8
sg145
g8
sg147
g8
sg149
g8
sg152
g8
sg155
(I2
I4
tp295
sg158
g8
sg160
(I4
I3
tp296
sg163
g8
sg166
g8
sg168
g8
sg171
g8
sg174
g8
sg176
g8
sg179
g8
sg181
g8
sg184
g8
sg186
g8
sg188
g8
sg191
(I6
I3
tp297
sg194
g8
sg197
g8
sg199
g8
sg201
(I4
I2
tp298
sg204
g8
sg207
g8
sg209
g8
sg211
g8
sg213
g8
sg216
g8
sg218
g8
sg220
(I2
I3
tp299
sg223
(I2
I4
tp300
sg226
g8
sg228
g8
ssI5
(dp301
g4
(I6
I6
tp302
sg7
g8
sg10
g8
sg12
(I8
I4
tp303
sg15
g8
sg17
(I7
I7
tp304
sg19
g8
sg21
(I8
I1
tp305
sg24
g8
sg26
g8
sg28
g8
sg30
g8
sg33
g8
sg35
g8
sg37
g8
sg39
(I6
I8
tp306
sg42
g8
sg44
g8
sg46
g8
sg48
g8
sg50
(I7
I7
tp307
sg52
(I7
I4
tp308
sg55
g8
sg57
(I7
I6
tp309
sg60
(I10
I2
tp310
sg63
(I7
I6
tp311
sg66
g8
sg68
g8
sg70
(I6
I8
tp312
sg72
(I10
I2
tp313
sg75
g8
sg78
(I10
I2
tp314
sg81
g8
sg84
g8
sg86
g8
sg88
g8
sg91
(I9
I3
tp315
sg94
g8
sg97
(I7
I6
tp316
sg99
(I6
I2
tp317
sg102
g8
sg104
(I9
I3
tp318
sg107
g8
sg109
(I7
I7
tp319
sg111
g8
sg113
(I6
I1
tp320
sg116
(I8
I5
tp321
sg119
(I9
I6
tp322
sg121
g8
sg123
(I10
I3
tp323
sg125
(I9
I5
tp324
sg128
g8
sg130
(I8
I1
tp325
sg133
(I7
I4
tp326
sg136
g8
sg138
(I8
I1
tp327
sg141
g8
sg143
g8
sg145
g8
sg147
g8
sg149
g8
sg152
g8
sg155
(I7
I4
tp328
sg158
g8
sg160
(I10
I3
tp329
sg163
g8
sg166
g8
sg168
(I9
I5
tp330
sg171
g8
sg174
g8
sg176
(I7
I8
tp331
sg179
g8
sg181
(I8
I5
tp332
sg184
g8
sg186
g8
sg188
(I7
I5
tp333
sg191
(I8
I3
tp334
sg194
g8
sg197
g8
sg199
g8
sg201
(I6
I2
tp335
sg204
(I7
I7
tp336
sg207
g8
sg209
g8
sg211
g8
sg213
g8
sg216
g8
sg218
g8
sg220
(I9
I3
tp337
sg223
(I7
I4
tp338
sg226
g8
sg228
g8
ssI6
(dp339
g4
(I10
I6
tp340
sg7
g8
sg10
(I8
I7
tp341
sg12
(I9
I4
tp342
sg15
(I10
I8
tp343
sg17
g8
sg19
g8
sg21
(I8
I1
tp344
sg24
g8
sg26
g8
sg28
(I8
I6
tp345
sg30
(I10
I8
tp346
sg33
g8
sg35
g8
sg37
g8
sg39
(I8
I6
tp347
sg42
g8
sg44
g8
sg46
g8
sg48
g8
sg50
g8
sg52
(I8
I4
tp348
sg55
g8
sg57
g8
sg60
(I8
I2
tp349
sg63
(I9
I6
tp350
sg66
g8
sg68
g8
sg70
g8
sg72
(I10
I2
tp351
sg75
(I10
I6
tp352
sg78
(I8
I2
tp353
sg81
(I10
I7
tp354
sg84
g8
sg86
g8
sg88
(I9
I8
tp355
sg91
(I8
I3
tp356
sg94
g8
sg97
g8
sg99
(I8
I2
tp357
sg102
g8
sg104
(I10
I3
tp358
sg107
g8
sg109
g8
sg111
g8
sg113
(I8
I1
tp359
sg116
(I8
I5
tp360
sg119
g8
sg121
g8
sg123
g8
sg125
(I9
I5
tp361
sg128
g8
sg130
(I8
I1
tp362
sg133
(I8
I4
tp363
sg136
g8
sg138
(I8
I1
tp364
sg141
g8
sg143
g8
sg145
g8
sg147
g8
sg149
g8
sg152
(I10
I7
tp365
sg155
(I8
I4
tp366
sg158
g8
sg160
(I7
I3
tp367
sg163
(I9
I5
tp368
sg166
g8
sg168
(I8
I5
tp369
sg171
g8
sg174
g8
sg176
(I7
I8
tp370
sg179
g8
sg181
(I8
I5
tp371
sg184
g8
sg186
g8
sg188
(I7
I5
tp372
sg191
(I8
I3
tp373
sg194
g8
sg197
g8
sg199
g8
sg201
(I10
I2
tp374
sg204
(I9
I7
tp375
sg207
g8
sg209
g8
sg211
g8
sg213
(I9
I7
tp376
sg216
g8
sg218
g8
sg220
(I9
I3
tp377
sg223
(I7
I4
tp378
sg226
g8
sg228
g8
ssI7
(dp379
g4
(I6
I6
tp380
sg7
g8
sg10
g8
sg12
g8
sg15
(I8
I8
tp381
sg17
(I10
I7
tp382
sg19
g8
sg21
(I6
I1
tp383
sg24
g8
sg26
(I10
I5
tp384
sg28
g8
sg30
g8
sg33
g8
sg35
g8
sg37
g8
sg39
(I8
I8
tp385
sg42
g8
sg44
g8
sg46
g8
sg48
g8
sg50
g8
sg52
(I8
I4
tp386
sg55
g8
sg57
(I8
I6
tp387
sg60
(I8
I2
tp388
sg63
(I9
I6
tp389
sg66
(I6
I4
tp390
sg68
g8
sg70
g8
sg72
(I6
I1
tp391
sg75
(I6
I6
tp392
sg78
(I6
I2
tp393
sg81
(I9
I7
tp394
sg84
(I5
I8
tp395
sg86
g8
sg88
g8
sg91
(I9
I3
tp396
sg94
g8
sg97
g8
sg99
(I6
I2
tp397
sg102
g8
sg104
(I9
I3
tp398
sg107
g8
sg109
g8
sg111
g8
sg113
(I4
I1
tp399
sg116
g8
sg119
g8
sg121
g8
sg123
g8
sg125
(I9
I5
tp400
sg128
g8
sg130
(I10
I1
tp401
sg133
(I7
I4
tp402
sg136
g8
sg138
(I8
I1
tp403
sg141
(I10
I8
tp404
sg143
(I9
I6
tp405
sg145
g8
sg147
g8
sg149
g8
sg152
g8
sg155
(I8
I4
tp406
sg158
g8
sg160
(I10
I3
tp407
sg163
(I7
I7
tp408
sg166
g8
sg168
g8
sg171
g8
sg174
g8
sg176
g8
sg179
(I7
I7
tp409
sg181
(I10
I5
tp410
sg184
g8
sg186
g8
sg188
(I6
I5
tp411
sg191
(I7
I3
tp412
sg194
g8
sg197
g8
sg199
g8
sg201
(I8
I2
tp413
sg204
(I7
I7
tp414
sg207
g8
sg209
g8
sg211
g8
sg213
(I9
I8
tp415
sg216
g8
sg218
g8
sg220
(I9
I3
tp416
sg223
(I5
I4
tp417
sg226
g8
sg228
g8
ssI8
(dp418
g4
g8
sg7
g8
sg10
g8
sg12
g8
sg15
(I10
I8
tp419
sg17
(I10
I8
tp420
sg19
g8
sg21
(I6
I1
tp421
sg24
g8
sg26
g8
sg28
g8
sg30
g8
sg33
g8
sg35
(I10
I5
tp422
sg37
g8
sg39
(I8
I6
tp423
sg42
g8
sg44
g8
sg46
g8
sg48
g8
sg50
(I0
I7
tp424
sg52
(I7
I4
tp425
sg55
g8
sg57
g8
sg60
(I4
I2
tp426
sg63
(I6
I6
tp427
sg66
(I9
I4
tp428
sg68
g8
sg70
(I9
I8
tp429
sg72
(I6
I2
tp430
sg75
g8
sg78
(I4
I2
tp431
sg81
(I7
I7
tp432
sg84
g8
sg86
g8
sg88
(I7
I6
tp433
sg91
(I6
I3
tp434
sg94
g8
sg97
(I9
I6
tp435
sg99
(I6
I2
tp436
sg102
g8
sg104
(I6
I3
tp437
sg107
g8
sg109
g8
sg111
g8
sg113
(I8
I1
tp438
sg116
(I9
I5
tp439
sg119
g8
sg121
g8
sg123
g8
sg125
(I10
I5
tp440
sg128
g8
sg130
(I6
I1
tp441
sg133
(I6
I4
tp442
sg136
g8
sg138
(I6
I1
tp443
sg141
g8
sg143
g8
sg145
g8
sg147
g8
sg149
(I7
I8
tp444
sg152
g8
sg155
(I6
I4
tp445
sg158
g8
sg160
(I8
I3
tp446
sg163
g8
sg166
(I7
I7
tp447
sg168
(I7
I5
tp448
sg171
(I10
I3
tp449
sg174
g8
sg176
(I9
I8
tp450
sg179
g8
sg181
g8
sg184
g8
sg186
g8
sg188
(I8
I5
tp451
sg191
(I7
I3
tp452
sg194
g8
sg197
g8
sg199
g8
sg201
(I4
I2
tp453
sg204
g8
sg207
g8
sg209
g8
sg211
g8
sg213
(I8
I7
tp454
sg216
g8
sg218
g8
sg220
(I9
I3
tp455
sg223
(I6
I4
tp456
sg226
g8
sg228
(I8
I7
tp457
ssI9
(dp458
g4
(I8
I6
tp459
sg7
g8
sg10
(I10
I7
tp460
sg12
(I10
I4
tp461
sg15
g8
sg17
g8
sg19
g8
sg21
(I8
I1
tp462
sg24
g8
sg26
g8
sg28
g8
sg30
g8
sg33
(I9
I7
tp463
sg35
g8
sg37
g8
sg39
(I10
I6
tp464
sg42
g8
sg44
g8
sg46
g8
sg48
g8
sg50
g8
sg52
(I8
I4
tp465
sg55
g8
sg57
(I4
I5
tp466
sg60
(I6
I2
tp467
sg63
(I8
I6
tp468
sg66
(I10
I8
tp469
sg68
g8
sg70
g8
sg72
(I4
I2
tp470
sg75
g8
sg78
(I10
I2
tp471
sg81
g8
sg84
g8
sg86
g8
sg88
g8
sg91
(I6
I3
tp472
sg94
g8
sg97
g8
sg99
(I10
I2
tp473
sg102
g8
sg104
(I8
I3
tp474
sg107
g8
sg109
g8
sg111
g8
sg113
(I10
I1
tp475
sg116
(I9
I5
tp476
sg119
g8
sg121
g8
sg123
g8
sg125
(I9
I5
tp477
sg128
g8
sg130
(I8
I1
tp478
sg133
(I10
I4
tp479
sg136
(I10
I2
tp480
sg138
(I8
I1
tp481
sg141
g8
sg143
g8
sg145
g8
sg147
(I10
I8
tp482
sg149
(I10
I8
tp483
sg152
(I10
I7
tp484
sg155
(I7
I4
tp485
sg158
(I9
I7
tp486
sg160
(I8
I3
tp487
sg163
g8
sg166
(I10
I7
tp488
sg168
(I8
I5
tp489
sg171
(I10
I3
tp490
sg174
(I10
I8
tp491
sg176
g8
sg179
g8
sg181
(I10
I5
tp492
sg184
g8
sg186
g8
sg188
(I10
I5
tp493
sg191
(I9
I3
tp494
sg194
(I10
I6
tp495
sg197
g8
sg199
g8
sg201
(I10
I2
tp496
sg204
(I9
I6
tp497
sg207
g8
sg209
g8
sg211
g8
sg213
(I10
I7
tp498
sg216
g8
sg218
g8
sg220
(I9
I3
tp499
sg223
(I5
I4
tp500
sg226
g8
sg228
g8
ssI10
(dp501
g4
(I0
I6
tp502
sg7
g8
sg10
g8
sg12
g8
sg15
g8
sg17
g8
sg19
g8
sg21
(I6
I1
tp503
sg24
g8
sg26
g8
sg28
(I8
I8
tp504
sg30
g8
sg33
g8
sg35
g8
sg37
g8
sg39
(I9
I6
tp505
sg42
g8
sg44
g8
sg46
g8
sg48
g8
sg50
g8
sg52
(I7
I4
tp506
sg55
g8
sg57
(I7
I5
tp507
sg60
(I8
I2
tp508
sg63
(I8
I6
tp509
sg66
(I7
I4
tp510
sg68
g8
sg70
g8
sg72
(I6
I2
tp511
sg75
(I7
I6
tp512
sg78
(I6
I2
tp513
sg81
(I6
I7
tp514
sg84
g8
sg86
g8
sg88
(I8
I6
tp515
sg91
(I7
I3
tp516
sg94
(I10
I8
tp517
sg97
g8
sg99
(I6
I2
tp518
sg102
g8
sg104
(I7
I3
tp519
sg107
g8
sg109
g8
sg111
g8
sg113
(I8
I1
tp520
sg116
g8
sg119
g8
sg121
g8
sg123
g8
sg125
(I9
I5
tp521
sg128
g8
sg130
(I6
I1
tp522
sg133
(I5
I4
tp523
sg136
(I10
I3
tp524
sg138
(I6
I1
tp525
sg141
g8
sg143
g8
sg145
g8
sg147
g8
sg149
(I6
I8
tp526
sg152
(I8
I7
tp527
sg155
(I7
I4
tp528
sg158
g8
sg160
(I6
I3
tp529
sg163
(I10
I7
tp530
sg166
(I7
I7
tp531
sg168
(I8
I5
tp532
sg171
(I10
I3
tp533
sg174
g8
sg176
(I7
I8
tp534
sg179
g8
sg181
(I8
I5
tp535
sg184
g8
sg186
g8
sg188
(I8
I5
tp536
sg191
(I8
I3
tp537
sg194
g8
sg197
g8
sg199
g8
sg201
(I4
I2
tp538
sg204
g8
sg207
g8
sg209
g8
sg211
g8
sg213
(I6
I7
tp539
sg216
g8
sg218
g8
sg220
(I8
I3
tp540
sg223
(I8
I4
tp541
sg226
g8
sg228
g8
ssI11
(dp542
g4
g8
sg7
g8
sg10
g8
sg12
(I9
I4
tp543
sg15
g8
sg17
g8
sg19
g8
sg21
(I10
I1
tp544
sg24
(I9
I8
tp545
sg26
g8
sg28
g8
sg30
g8
sg33
g8
sg35
g8
sg37
g8
sg39
(I10
I6
tp546
sg42
g8
sg44
g8
sg46
(I9
I9
tp547
sg48
g8
sg50
g8
sg52
(I7
I4
tp548
sg55
g8
sg57
(I8
I5
tp549
sg60
(I8
I2
tp550
sg63
g8
sg66
g8
sg68
(I10
I9
tp551
sg70
g8
sg72
(I10
I2
tp552
sg75
(I10
I6
tp553
sg78
(I10
I2
tp554
sg81
g8
sg84
g8
sg86
g8
sg88
(I6
I6
tp555
sg91
(I6
I3
tp556
sg94
(I10
I8
tp557
sg97
(I8
I6
tp558
sg99
(I10
I2
tp559
sg102
g8
sg104
(I10
I3
tp560
sg107
g8
sg109
g8
sg111
g8
sg113
(I6
I1
tp561
sg116
(I7
I5
tp562
sg119
g8
sg121
g8
sg123
g8
sg125
g8
sg128
(I10
I5
tp563
sg130
(I10
I1
tp564
sg133
(I10
I4
tp565
sg136
g8
sg138
(I10
I1
tp566
sg141
g8
sg143
(I10
I6
tp567
sg145
g8
sg147
g8
sg149
g8
sg152
g8
sg155
(I10
I4
tp568
sg158
g8
sg160
(I10
I3
tp569
sg163
g8
sg166
g8
sg168
(I5
I9
tp570
sg171
g8
sg174
g8
sg176
g8
sg179
g8
sg181
(I5
I5
tp571
sg184
g8
sg186
g8
sg188
(I6
I5
tp572
sg191
(I7
I3
tp573
sg194
g8
sg197
g8
sg199
g8
sg201
(I6
I2
tp574
sg204
g8
sg207
(I10
I8
tp575
sg209
g8
sg211
g8
sg213
(I6
I8
tp576
sg216
(I8
I9
tp577
sg218
(I7
I8
tp578
sg220
(I10
I3
tp579
sg223
(I7
I4
tp580
sg226
g8
sg228
(I8
I9
tp581
ssI12
(dp582
g4
g8
sg7
g8
sg10
g8
sg12
g8
sg15
g8
sg17
g8
sg19
g8
sg21
(I4
I1
tp583
sg24
g8
sg26
g8
sg28
g8
sg30
g8
sg33
g8
sg35
g8
sg37
g8
sg39
g8
sg42
g8
sg44
g8
sg46
g8
sg48
g8
sg50
g8
sg52
g8
sg55
g8
sg57
g8
sg60
(I2
I2
tp584
sg63
g8
sg66
g8
sg68
g8
sg70
g8
sg72
(I2
I2
tp585
sg75
g8
sg78
(I2
I2
tp586
sg81
g8
sg84
g8
sg86
g8
sg88
g8
sg91
g8
sg94
g8
sg97
g8
sg99
(I2
I2
tp587
sg102
g8
sg104
g8
sg107
g8
sg109
g8
sg111
g8
sg113
(I2
I1
tp588
sg116
g8
sg119
g8
sg121
g8
sg123
g8
sg125
g8
sg128
g8
sg130
(I8
I1
tp589
sg133
g8
sg136
g8
sg138
(I2
I1
tp590
sg141
g8
sg143
g8
sg145
g8
sg147
g8
sg149
g8
sg152
g8
sg155
g8
sg158
g8
sg160
g8
sg163
g8
sg166
g8
sg168
g8
sg171
g8
sg174
g8
sg176
g8
sg179
g8
sg181
g8
sg184
g8
sg186
g8
sg188
g8
sg191
g8
sg194
g8
sg197
g8
sg199
g8
sg201
(I2
I2
tp591
sg204
g8
sg207
g8
sg209
g8
sg211
g8
sg213
g8
sg216
g8
sg218
g8
sg220
g8
sg223
g8
sg226
g8
sg228
g8
ssI13
(dp592
g4
(I6
I6
tp593
sg7
g8
sg10
g8
sg12
(I6
I6
tp594
sg15
(I10
I8
tp595
sg17
g8
sg19
g8
sg21
(I6
I1
tp596
sg24
g8
sg26
g8
sg28
g8
sg30
g8
sg33
g8
sg35
g8
sg37
g8
sg39
(I7
I8
tp597
sg42
g8
sg44
g8
sg46
g8
sg48
g8
sg50
g8
sg52
(I7
I4
tp598
sg55
g8
sg57
(I8
I6
tp599
sg60
(I6
I2
tp600
sg63
(I8
I6
tp601
sg66
(I8
I4
tp602
sg68
g8
sg70
g8
sg72
(I8
I2
tp603
sg75
(I5
I6
tp604
sg78
(I6
I2
tp605
sg81
(I7
I7
tp606
sg84
g8
sg86
g8
sg88
g8
sg91
(I7
I3
tp607
sg94
g8
sg97
g8
sg99
(I8
I2
tp608
sg102
g8
sg104
(I10
I3
tp609
sg107
g8
sg109
g8
sg111
g8
sg113
(I8
I1
tp610
sg116
(I5
I5
tp611
sg119
g8
sg121
g8
sg123
g8
sg125
(I5
I5
tp612
sg128
g8
sg130
(I8
I1
tp613
sg133
(I6
I4
tp614
sg136
g8
sg138
(I8
I1
tp615
sg141
g8
sg143
g8
sg145
g8
sg147
g8
sg149
g8
sg152
g8
sg155
(I5
I4
tp616
sg158
(I4
I7
tp617
sg160
(I7
I3
tp618
sg163
(I7
I7
tp619
sg166
g8
sg168
(I7
I7
tp620
sg171
g8
sg174
(I6
I8
tp621
sg176
(I9
I8
tp622
sg179
g8
sg181
(I4
I5
tp623
sg184
g8
sg186
g8
sg188
(I5
I5
tp624
sg191
(I7
I3
tp625
sg194
g8
sg197
g8
sg199
g8
sg201
(I6
I2
tp626
sg204
g8
sg207
g8
sg209
g8
sg211
g8
sg213
(I8
I7
tp627
sg216
g8
sg218
g8
sg220
(I8
I3
tp628
sg223
(I5
I4
tp629
sg226
g8
sg228
g8
ssI14
(dp630
g4
(I6
I6
tp631
sg7
g8
sg10
g8
sg12
g8
sg15
(I9
I8
tp632
sg17
g8
sg19
g8
sg21
(I4
I1
tp633
sg24
g8
sg26
(I10
I5
tp634
sg28
g8
sg30
(I7
I8
tp635
sg33
g8
sg35
g8
sg37
g8
sg39
(I8
I6
tp636
sg42
g8
sg44
g8
sg46
g8
sg48
g8
sg50
(I9
I7
tp637
sg52
(I7
I4
tp638
sg55
g8
sg57
(I5
I5
tp639
sg60
(I7
I6
tp640
sg63
g8
sg66
(I7
I4
tp641
sg68
g8
sg70
g8
sg72
(I2
I2
tp642
sg75
g8
sg78
(I4
I2
tp643
sg81
(I8
I7
tp644
sg84
(I6
I8
tp645
sg86
g8
sg88
(I6
I6
tp646
sg91
(I6
I3
tp647
sg94
g8
sg97
(I8
I6
tp648
sg99
(I4
I2
tp649
sg102
g8
sg104
(I7
I3
tp650
sg107
g8
sg109
g8
sg111
g8
sg113
(I6
I1
tp651
sg116
(I7
I5
tp652
sg119
g8
sg121
g8
sg123
(I10
I3
tp653
sg125
(I9
I5
tp654
sg128
g8
sg130
(I6
I1
tp655
sg133
(I6
I4
tp656
sg136
(I10
I3
tp657
sg138
(I8
I1
tp658
sg141
g8
sg143
g8
sg145
g8
sg147
g8
sg149
(I8
I8
tp659
sg152
g8
sg155
(I6
I4
tp660
sg158
g8
sg160
(I7
I3
tp661
sg163
(I8
I7
tp662
sg166
(I9
I7
tp663
sg168
(I7
I7
tp664
sg171
g8
sg174
g8
sg176
(I7
I8
tp665
sg179
g8
sg181
g8
sg184
g8
sg186
g8
sg188
(I9
I5
tp666
sg191
(I6
I3
tp667
sg194
g8
sg197
g8
sg199
g8
sg201
(I4
I2
tp668
sg204
g8
sg207
g8
sg209
g8
sg211
g8
sg213
g8
sg216
g8
sg218
g8
sg220
(I5
I3
tp669
sg223
(I5
I4
tp670
sg226
g8
sg228
g8
ssI15
(dp671
g4
g8
sg7
g8
sg10
g8
sg12
(I8
I4
tp672
sg15
(I8
I8
tp673
sg17
(I9
I8
tp674
sg19
g8
sg21
(I8
I1
tp675
sg24
g8
sg26
(I10
I5
tp676
sg28
g8
sg30
g8
sg33
g8
sg35
g8
sg37
g8
sg39
(I8
I6
tp677
sg42
g8
sg44
g8
sg46
g8
sg48
g8
sg50
(I6
I7
tp678
sg52
(I7
I4
tp679
sg55
g8
sg57
g8
sg60
(I4
I2
tp680
sg63
(I7
I6
tp681
sg66
g8
sg68
g8
sg70
(I5
I8
tp682
sg72
(I2
I2
tp683
sg75
g8
sg78
(I8
I2
tp684
sg81
(I8
I7
tp685
sg84
g8
sg86
(I9
I7
tp686
sg88
g8
sg91
(I4
I3
tp687
sg94
g8
sg97
g8
sg99
(I6
I2
tp688
sg102
g8
sg104
(I7
I3
tp689
sg107
g8
sg109
g8
sg111
g8
sg113
(I6
I1
tp690
sg116
(I6
I5
tp691
sg119
(I9
I6
tp692
sg121
g8
sg123
(I10
I3
tp693
sg125
(I8
I5
tp694
sg128
g8
sg130
(I8
I1
tp695
sg133
(I5
I4
tp696
sg136
(I10
I3
tp697
sg138
(I8
I1
tp698
sg141
g8
sg143
(I4
I6
tp699
sg145
g8
sg147
g8
sg149
(I6
I8
tp700
sg152
g8
sg155
(I7
I4
tp701
sg158
g8
sg160
(I9
I3
tp702
sg163
g8
sg166
(I6
I7
tp703
sg168
(I8
I5
tp704
sg171
g8
sg174
g8
sg176
g8
sg179
g8
sg181
g8
sg184
g8
sg186
g8
sg188
(I5
I5
tp705
sg191
(I4
I3
tp706
sg194
g8
sg197
g8
sg199
g8
sg201
(I4
I2
tp707
sg204
g8
sg207
g8
sg209
g8
sg211
g8
sg213
(I9
I7
tp708
sg216
g8
sg218
g8
sg220
(I7
I3
tp709
sg223
(I5
I6
tp710
sg226
g8
sg228
g8
ssI16
(dp711
g4
(I7
I6
tp712
sg7
g8
sg10
(I6
I4
tp713
sg12
(I4
I4
tp714
sg15
g8
sg17
g8
sg19
g8
sg21
(I6
I1
tp715
sg24
g8
sg26
g8
sg28
g8
sg30
g8
sg33
g8
sg35
g8
sg37
g8
sg39
(I6
I8
tp716
sg42
g8
sg44
g8
sg46
g8
sg48
g8
sg50
g8
sg52
(I7
I4
tp717
sg55
g8
sg57
g8
sg60
(I4
I2
tp718
sg63
(I7
I6
tp719
sg66
g8
sg68
g8
sg70
g8
sg72
(I4
I1
tp720
sg75
(I2
I7
tp721
sg78
(I4
I1
tp722
sg81
g8
sg84
g8
sg86
g8
sg88
(I2
I6
tp723
sg91
(I8
I3
tp724
sg94
g8
sg97
g8
sg99
(I6
I2
tp725
sg102
g8
sg104
(I8
I3
tp726
sg107
g8
sg109
g8
sg111
(I4
I8
tp727
sg113
(I8
I1
tp728
sg116
(I4
I8
tp729
sg119
g8
sg121
g8
sg123
g8
sg125
(I7
I5
tp730
sg128
(I2
I5
tp731
sg130
(I8
I1
tp732
sg133
(I5
I4
tp733
sg136
g8
sg138
(I6
I1
tp734
sg141
g8
sg143
(I4
I6
tp735
sg145
g8
sg147
g8
sg149
g8
sg152
g8
sg155
(I7
I4
tp736
sg158
g8
sg160
(I6
I3
tp737
sg163
(I5
I7
tp738
sg166
g8
sg168
(I6
I5
tp739
sg171
g8
sg174
g8
sg176
(I4
I8
tp740
sg179
g8
sg181
(I6
I5
tp741
sg184
g8
sg186
g8
sg188
(I5
I5
tp742
sg191
(I6
I3
tp743
sg194
(I4
I6
tp744
sg197
g8
sg199
g8
sg201
(I10
I2
tp745
sg204
(I4
I7
tp746
sg207
g8
sg209
(I2
I7
tp747
sg211
(I10
I4
tp748
sg213
(I6
I7
tp749
sg216
g8
sg218
g8
sg220
(I7
I3
tp750
sg223
(I7
I4
tp751
sg226
g8
sg228
g8
ssI17
(dp752
g4
(I0
I6
tp753
sg7
g8
sg10
g8
sg12
(I9
I4
tp754
sg15
g8
sg17
g8
sg19
g8
sg21
(I6
I1
tp755
sg24
g8
sg26
g8
sg28
(I7
I8
tp756
sg30
g8
sg33
g8
sg35
g8
sg37
g8
sg39
(I9
I6
tp757
sg42
g8
sg44
g8
sg46
g8
sg48
g8
sg50
g8
sg52
(I8
I4
tp758
sg55
g8
sg57
(I7
I5
tp759
sg60
(I6
I2
tp760
sg63
(I9
I6
tp761
sg66
g8
sg68
g8
sg70
g8
sg72
(I8
I1
tp762
sg75
(I8
I6
tp763
sg78
(I4
I2
tp764
sg81
(I7
I7
tp765
sg84
g8
sg86
g8
sg88
(I8
I6
tp766
sg91
(I8
I3
tp767
sg94
(I10
I8
tp768
sg97
g8
sg99
(I8
I2
tp769
sg102
g8
sg104
(I7
I3
tp770
sg107
g8
sg109
g8
sg111
g8
sg113
(I10
I1
tp771
sg116
g8
sg119
g8
sg121
g8
sg123
g8
sg125
(I9
I5
tp772
sg128
g8
sg130
(I8
I1
tp773
sg133
(I7
I4
tp774
sg136
(I10
I3
tp775
sg138
(I8
I1
tp776
sg141
g8
sg143
g8
sg145
g8
sg147
g8
sg149
(I8
I8
tp777
sg152
(I8
I7
tp778
sg155
(I7
I4
tp779
sg158
g8
sg160
(I6
I3
tp780
sg163
(I10
I7
tp781
sg166
(I9
I7
tp782
sg168
(I7
I5
tp783
sg171
(I10
I3
tp784
sg174
g8
sg176
(I8
I8
tp785
sg179
g8
sg181
(I8
I5
tp786
sg184
g8
sg186
g8
sg188
(I8
I5
tp787
sg191
(I8
I3
tp788
sg194
g8
sg197
g8
sg199
g8
sg201
(I4
I2
tp789
sg204
g8
sg207
g8
sg209
g8
sg211
g8
sg213
(I6
I7
tp790
sg216
g8
sg218
g8
sg220
(I8
I3
tp791
sg223
(I8
I4
tp792
sg226
g8
sg228
g8
ssI18
(dp793
g4
(I9
I6
tp794
sg7
g8
sg10
(I10
I8
tp795
sg12
(I9
I4
tp796
sg15
g8
sg17
g8
sg19
g8
sg21
(I8
I1
tp797
sg24
g8
sg26
g8
sg28
g8
sg30
g8
sg33
g8
sg35
g8
sg37
g8
sg39
(I9
I6
tp798
sg42
g8
sg44
g8
sg46
g8
sg48
g8
sg50
g8
sg52
(I9
I4
tp799
sg55
g8
sg57
(I10
I5
tp800
sg60
(I8
I2
tp801
sg63
(I8
I6
tp802
sg66
g8
sg68
g8
sg70
(I8
I8
tp803
sg72
(I8
I2
tp804
sg75
(I9
I6
tp805
sg78
(I10
I2
tp806
sg81
g8
sg84
g8
sg86
g8
sg88
g8
sg91
(I9
I3
tp807
sg94
(I9
I7
tp808
sg97
g8
sg99
(I10
I2
tp809
sg102
g8
sg104
(I9
I3
tp810
sg107
g8
sg109
g8
sg111
g8
sg113
(I10
I1
tp811
sg116
(I7
I5
tp812
sg119
g8
sg121
g8
sg123
g8
sg125
(I9
I5
tp813
sg128
g8
sg130
(I8
I1
tp814
sg133
(I8
I4
tp815
sg136
g8
sg138
(I8
I1
tp816
sg141
g8
sg143
g8
sg145
g8
sg147
g8
sg149
(I10
I8
tp817
sg152
(I10
I7
tp818
sg155
(I7
I4
tp819
sg158
g8
sg160
(I7
I3
tp820
sg163
(I8
I7
tp821
sg166
g8
sg168
(I9
I5
tp822
sg171
(I10
I2
tp823
sg174
g8
sg176
(I10
I8
tp824
sg179
(I7
I7
tp825
sg181
(I9
I5
tp826
sg184
g8
sg186
g8
sg188
(I7
I5
tp827
sg191
(I8
I3
tp828
sg194
(I7
I6
tp829
sg197
g8
sg199
g8
sg201
(I6
I2
tp830
sg204
(I8
I7
tp831
sg207
g8
sg209
g8
sg211
g8
sg213
(I7
I7
tp832
sg216
g8
sg218
g8
sg220
(I10
I3
tp833
sg223
(I8
I4
tp834
sg226
g8
sg228
g8
ssI19
(dp835
g4
(I0
I6
tp836
sg7
g8
sg10
g8
sg12
g8
sg15
(I10
I8
tp837
sg17
g8
sg19
g8
sg21
(I6
I1
tp838
sg24
g8
sg26
g8
sg28
(I8
I6
tp839
sg30
g8
sg33
g8
sg35
g8
sg37
g8
sg39
(I9
I6
tp840
sg42
g8
sg44
g8
sg46
g8
sg48
g8
sg50
(I7
I7
tp841
sg52
(I8
I4
tp842
sg55
g8
sg57
g8
sg60
(I4
I2
tp843
sg63
(I9
I6
tp844
sg66
(I8
I4
tp845
sg68
g8
sg70
g8
sg72
(I2
I2
tp846
sg75
g8
sg78
(I6
I2
tp847
sg81
(I8
I7
tp848
sg84
g8
sg86
(I9
I7
tp849
sg88
(I8
I8
tp850
sg91
(I6
I3
tp851
sg94
(I9
I8
tp852
sg97
g8
sg99
(I8
I2
tp853
sg102
g8
sg104
(I8
I3
tp854
sg107
g8
sg109
g8
sg111
g8
sg113
(I8
I1
tp855
sg116
g8
sg119
g8
sg121
g8
sg123
g8
sg125
(I9
I5
tp856
sg128
g8
sg130
(I8
I1
tp857
sg133
(I6
I4
tp858
sg136
(I10
I3
tp859
sg138
(I6
I1
tp860
sg141
g8
sg143
g8
sg145
g8
sg147
g8
sg149
(I8
I8
tp861
sg152
g8
sg155
(I6
I4
tp862
sg158
g8
sg160
(I6
I3
tp863
sg163
(I7
I5
tp864
sg166
(I9
I7
tp865
sg168
(I7
I5
tp866
sg171
(I10
I3
tp867
sg174
g8
sg176
g8
sg179
g8
sg181
(I8
I5
tp868
sg184
g8
sg186
g8
sg188
(I8
I5
tp869
sg191
(I8
I3
tp870
sg194
(I7
I6
tp871
sg197
g8
sg199
g8
sg201
(I8
I2
tp872
sg204
g8
sg207
g8
sg209
g8
sg211
g8
sg213
(I8
I8
tp873
sg216
g8
sg218
g8
sg220
(I8
I3
tp874
sg223
(I7
I4
tp875
sg226
g8
sg228
g8
ssI20
(dp876
g4
g8
sg7
g8
sg10
(I10
I8
tp877
sg12
g8
sg15
g8
sg17
(I10
I7
tp878
sg19
g8
sg21
(I6
I1
tp879
sg24
g8
sg26
g8
sg28
(I7
I6
tp880
sg30
(I8
I8
tp881
sg33
g8
sg35
g8
sg37
g8
sg39
(I9
I6
tp882
sg42
g8
sg44
g8
sg46
g8
sg48
g8
sg50
(I7
I7
tp883
sg52
(I6
I4
tp884
sg55
g8
sg57
(I10
I5
tp885
sg60
(I6
I6
tp886
sg63
g8
sg66
(I6
I4
tp887
sg68
g8
sg70
g8
sg72
(I8
I6
tp888
sg75
(I6
I6
tp889
sg78
(I4
I2
tp890
sg81
g8
sg84
g8
sg86
g8
sg88
(I10
I8
tp891
sg91
(I4
I3
tp892
sg94
g8
sg97
g8
sg99
(I4
I2
tp893
sg102
g8
sg104
(I7
I3
tp894
sg107
g8
sg109
g8
sg111
g8
sg113
(I6
I1
tp895
sg116
g8
sg119
g8
sg121
g8
sg123
g8
sg125
(I10
I5
tp896
sg128
g8
sg130
(I6
I1
tp897
sg133
(I5
I4
tp898
sg136
(I10
I3
tp899
sg138
(I6
I1
tp900
sg141
g8
sg143
g8
sg145
g8
sg147
g8
sg149
g8
sg152
g8
sg155
(I6
I4
tp901
sg158
g8
sg160
(I7
I3
tp902
sg163
(I9
I5
tp903
sg166
(I7
I7
tp904
sg168
(I8
I5
tp905
sg171
(I10
I2
tp906
sg174
g8
sg176
(I10
I8
tp907
sg179
g8
sg181
(I9
I5
tp908
sg184
g8
sg186
g8
sg188
(I7
I7
tp909
sg191
(I6
I3
tp910
sg194
g8
sg197
g8
sg199
g8
sg201
(I4
I2
tp911
sg204
g8
sg207
g8
sg209
g8
sg211
g8
sg213
(I9
I8
tp912
sg216
g8
sg218
g8
sg220
(I6
I3
tp913
sg223
(I4
I4
tp914
sg226
g8
sg228
g8
ssI21
(dp915
g4
g8
sg7
g8
sg10
g8
sg12
(I8
I4
tp916
sg15
(I8
I8
tp917
sg17
g8
sg19
g8
sg21
(I6
I1
tp918
sg24
g8
sg26
g8
sg28
(I6
I6
tp919
sg30
(I6
I8
tp920
sg33
g8
sg35
g8
sg37
g8
sg39
(I6
I8
tp921
sg42
g8
sg44
g8
sg46
g8
sg48
g8
sg50
(I7
I7
tp922
sg52
(I6
I4
tp923
sg55
g8
sg57
(I4
I5
tp924
sg60
(I4
I2
tp925
sg63
(I8
I6
tp926
sg66
g8
sg68
g8
sg70
(I8
I8
tp927
sg72
(I5
I6
tp928
sg75
g8
sg78
(I6
I2
tp929
sg81
(I6
I7
tp930
sg84
g8
sg86
(I5
I7
tp931
sg88
g8
sg91
(I7
I3
tp932
sg94
g8
sg97
(I8
I6
tp933
sg99
(I8
I2
tp934
sg102
g8
sg104
(I8
I3
tp935
sg107
g8
sg109
g8
sg111
g8
sg113
(I6
I1
tp936
sg116
(I6
I5
tp937
sg119
(I8
I6
tp938
sg121
g8
sg123
g8
sg125
g8
sg128
g8
sg130
(I8
I1
tp939
sg133
(I4
I4
tp940
sg136
g8
sg138
(I6
I1
tp941
sg141
g8
sg143
g8
sg145
g8
sg147
g8
sg149
g8
sg152
g8
sg155
(I5
I4
tp942
sg158
g8
sg160
(I8
I3
tp943
sg163
(I7
I5
tp944
sg166
g8
sg168
(I7
I5
tp945
sg171
g8
sg174
g8
sg176
(I7
I8
tp946
sg179
(I0
I7
tp947
sg181
g8
sg184
g8
sg186
g8
sg188
(I8
I5
tp948
sg191
(I8
I3
tp949
sg194
g8
sg197
g8
sg199
g8
sg201
(I6
I2
tp950
sg204
g8
sg207
g8
sg209
(I4
I7
tp951
sg211
g8
sg213
g8
sg216
g8
sg218
(I8
I8
tp952
sg220
(I7
I3
tp953
sg223
(I6
I4
tp954
sg226
g8
sg228
g8
ssI22
(dp955
g4
(I9
I6
tp956
sg7
g8
sg10
g8
sg12
g8
sg15
g8
sg17
(I10
I8
tp957
sg19
g8
sg21
(I10
I1
tp958
sg24
g8
sg26
g8
sg28
g8
sg30
g8
sg33
g8
sg35
g8
sg37
g8
sg39
(I10
I6
tp959
sg42
g8
sg44
g8
sg46
g8
sg48
g8
sg50
g8
sg52
(I8
I4
tp960
sg55
g8
sg57
(I7
I5
tp961
sg60
(I6
I2
tp962
sg63
(I10
I6
tp963
sg66
(I10
I4
tp964
sg68
g8
sg70
g8
sg72
(I4
I2
tp965
sg75
g8
sg78
(I6
I2
tp966
sg81
g8
sg84
g8
sg86
g8
sg88
(I7
I6
tp967
sg91
(I6
I3
tp968
sg94
(I10
I7
tp969
sg97
g8
sg99
(I8
I2
tp970
sg102
g8
sg104
(I10
I3
tp971
sg107
g8
sg109
g8
sg111
(I9
I8
tp972
sg113
(I10
I1
tp973
sg116
(I8
I5
tp974
sg119
g8
sg121
g8
sg123
g8
sg125
(I6
I5
tp975
sg128
g8
sg130
(I8
I1
tp976
sg133
(I8
I4
tp977
sg136
g8
sg138
(I10
I1
tp978
sg141
g8
sg143
(I8
I6
tp979
sg145
g8
sg147
g8
sg149
g8
sg152
g8
sg155
(I8
I4
tp980
sg158
g8
sg160
(I10
I3
tp981
sg163
(I8
I7
tp982
sg166
g8
sg168
g8
sg171
g8
sg174
g8
sg176
g8
sg179
g8
sg181
(I9
I5
tp983
sg184
g8
sg186
g8
sg188
(I6
I5
tp984
sg191
(I10
I3
tp985
sg194
g8
sg197
g8
sg199
g8
sg201
(I6
I2
tp986
sg204
(I9
I7
tp987
sg207
g8
sg209
(I8
I7
tp988
sg211
g8
sg213
(I9
I7
tp989
sg216
g8
sg218
g8
sg220
(I10
I3
tp990
sg223
(I7
I4
tp991
sg226
g8
sg228
g8
ssI23
(dp992
g4
(I7
I6
tp993
sg7
(I10
I2
tp994
sg10
g8
sg12
(I9
I4
tp995
sg15
(I8
I8
tp996
sg17
(I10
I7
tp997
sg19
g8
sg21
(I8
I1
tp998
sg24
g8
sg26
(I9
I5
tp999
sg28
g8
sg30
g8
sg33
g8
sg35
g8
sg37
g8
sg39
(I7
I8
tp1000
sg42
g8
sg44
g8
sg46
g8
sg48
g8
sg50
g8
sg52
(I7
I4
tp1001
sg55
g8
sg57
(I7
I6
tp1002
sg60
(I6
I2
tp1003
sg63
(I8
I6
tp1004
sg66
g8
sg68
g8
sg70
g8
sg72
(I2
I2
tp1005
sg75
(I8
I6
tp1006
sg78
(I6
I1
tp1007
sg81
g8
sg84
g8
sg86
g8
sg88
(I7
I8
tp1008
sg91
(I6
I3
tp1009
sg94
g8
sg97
g8
sg99
(I8
I2
tp1010
sg102
g8
sg104
(I9
I3
tp1011
sg107
g8
sg109
g8
sg111
g8
sg113
(I8
I1
tp1012
sg116
(I7
I5
tp1013
sg119
g8
sg121
g8
sg123
g8
sg125
(I8
I5
tp1014
sg128
g8
sg130
(I8
I1
tp1015
sg133
(I7
I4
tp1016
sg136
g8
sg138
(I6
I1
tp1017
sg141
g8
sg143
g8
sg145
g8
sg147
g8
sg149
g8
sg152
g8
sg155
(I7
I4
tp1018
sg158
g8
sg160
(I7
I3
tp1019
sg163
(I7
I7
tp1020
sg166
g8
sg168
(I8
I5
tp1021
sg171
(I10
I3
tp1022
sg174
g8
sg176
(I7
I8
tp1023
sg179
g8
sg181
g8
sg184
g8
sg186
g8
sg188
(I8
I5
tp1024
sg191
(I9
I3
tp1025
sg194
(I9
I6
tp1026
sg197
(I8
I7
tp1027
sg199
g8
sg201
(I6
I2
tp1028
sg204
g8
sg207
g8
sg209
(I7
I7
tp1029
sg211
g8
sg213
(I10
I8
tp1030
sg216
g8
sg218
g8
sg220
(I8
I3
tp1031
sg223
(I4
I4
tp1032
sg226
g8
sg228
g8
ssI24
(dp1033
g4
(I0
I6
tp1034
sg7
g8
sg10
g8
sg12
g8
sg15
g8
sg17
g8
sg19
g8
sg21
(I4
I1
tp1035
sg24
g8
sg26
g8
sg28
g8
sg30
(I4
I8
tp1036
sg33
g8
sg35
(I8
I5
tp1037
sg37
g8
sg39
(I8
I6
tp1038
sg42
g8
sg44
g8
sg46
g8
sg48
g8
sg50
g8
sg52
(I8
I4
tp1039
sg55
g8
sg57
g8
sg60
(I8
I6
tp1040
sg63
g8
sg66
(I9
I4
tp1041
sg68
g8
sg70
(I9
I8
tp1042
sg72
(I4
I2
tp1043
sg75
g8
sg78
(I8
I2
tp1044
sg81
(I6
I7
tp1045
sg84
g8
sg86
g8
sg88
(I7
I6
tp1046
sg91
(I5
I3
tp1047
sg94
(I8
I7
tp1048
sg97
(I8
I6
tp1049
sg99
(I6
I2
tp1050
sg102
g8
sg104
(I6
I3
tp1051
sg107
g8
sg109
g8
sg111
g8
sg113
(I6
I1
tp1052
sg116
(I7
I5
tp1053
sg119
g8
sg121
(I8
I7
tp1054
sg123
g8
sg125
(I9
I5
tp1055
sg128
g8
sg130
(I6
I1
tp1056
sg133
(I8
I4
tp1057
sg136
g8
sg138
(I4
I1
tp1058
sg141
g8
sg143
g8
sg145
g8
sg147
g8
sg149
(I8
I8
tp1059
sg152
g8
sg155
(I7
I4
tp1060
sg158
g8
sg160
(I8
I3
tp1061
sg163
(I5
I7
tp1062
sg166
(I9
I7
tp1063
sg168
(I6
I5
tp1064
sg171
(I10
I3
tp1065
sg174
g8
sg176
(I4
I8
tp1066
sg179
g8
sg181
g8
sg184
g8
sg186
g8
sg188
(I7
I5
tp1067
sg191
(I7
I3
tp1068
sg194
g8
sg197
g8
sg199
g8
sg201
(I6
I2
tp1069
sg204
g8
sg207
g8
sg209
g8
sg211
g8
sg213
g8
sg216
g8
sg218
g8
sg220
(I9
I3
tp1070
sg223
(I7
I4
tp1071
sg226
g8
sg228
(I8
I7
tp1072
ssI25
(dp1073
g4
(I10
I6
tp1074
sg7
g8
sg10
(I10
I7
tp1075
sg12
(I10
I4
tp1076
sg15
g8
sg17
(I9
I8
tp1077
sg19
g8
sg21
(I10
I1
tp1078
sg24
g8
sg26
g8
sg28
g8
sg30
(I10
I8
tp1079
sg33
g8
sg35
g8
sg37
g8
sg39
(I10
I6
tp1080
sg42
g8
sg44
g8
sg46
g8
sg48
g8
sg50
g8
sg52
(I10
I4
tp1081
sg55
g8
sg57
(I10
I5
tp1082
sg60
(I10
I2
tp1083
sg63
(I10
I6
tp1084
sg66
g8
sg68
g8
sg70
(I10
I8
tp1085
sg72
(I10
I2
tp1086
sg75
(I9
I6
tp1087
sg78
(I8
I2
tp1088
sg81
(I10
I7
tp1089
sg84
g8
sg86
(I10
I7
tp1090
sg88
g8
sg91
(I7
I3
tp1091
sg94
g8
sg97
g8
sg99
(I10
I2
tp1092
sg102
g8
sg104
(I10
I3
tp1093
sg107
g8
sg109
g8
sg111
g8
sg113
(I10
I1
tp1094
sg116
(I10
I5
tp1095
sg119
g8
sg121
g8
sg123
g8
sg125
(I9
I5
tp1096
sg128
g8
sg130
(I10
I1
tp1097
sg133
(I10
I4
tp1098
sg136
(I10
I3
tp1099
sg138
(I10
I1
tp1100
sg141
g8
sg143
g8
sg145
g8
sg147
g8
sg149
g8
sg152
(I10
I7
tp1101
sg155
(I9
I4
tp1102
sg158
g8
sg160
(I9
I3
tp1103
sg163
(I10
I7
tp1104
sg166
g8
sg168
(I10
I5
tp1105
sg171
g8
sg174
g8
sg176
g8
sg179
g8
sg181
(I10
I5
tp1106
sg184
(I9
I8
tp1107
sg186
g8
sg188
(I10
I5
tp1108
sg191
(I10
I3
tp1109
sg194
g8
sg197
g8
sg199
g8
sg201
(I10
I2
tp1110
sg204
(I10
I6
tp1111
sg207
g8
sg209
g8
sg211
g8
sg213
(I9
I7
tp1112
sg216
g8
sg218
g8
sg220
(I10
I3
tp1113
sg223
(I8
I4
tp1114
sg226
g8
sg228
g8
ssI26
(dp1115
g4
g8
sg7
g8
sg10
g8
sg12
g8
sg15
g8
sg17
g8
sg19
g8
sg21
(I4
I1
tp1116
sg24
g8
sg26
g8
sg28
g8
sg30
g8
sg33
g8
sg35
g8
sg37
g8
sg39
g8
sg42
g8
sg44
g8
sg46
g8
sg48
g8
sg50
g8
sg52
g8
sg55
g8
sg57
g8
sg60
(I2
I2
tp1117
sg63
g8
sg66
g8
sg68
g8
sg70
g8
sg72
(I2
I2
tp1118
sg75
g8
sg78
(I2
I2
tp1119
sg81
g8
sg84
g8
sg86
g8
sg88
g8
sg91
g8
sg94
g8
sg97
g8
sg99
(I4
I2
tp1120
sg102
g8
sg104
g8
sg107
g8
sg109
g8
sg111
g8
sg113
(I6
I1
tp1121
sg116
g8
sg119
g8
sg121
g8
sg123
g8
sg125
g8
sg128
g8
sg130
(I4
I1
tp1122
sg133
g8
sg136
g8
sg138
(I4
I1
tp1123
sg141
g8
sg143
g8
sg145
g8
sg147
g8
sg149
g8
sg152
g8
sg155
g8
sg158
g8
sg160
g8
sg163
g8
sg166
g8
sg168
g8
sg171
g8
sg174
g8
sg176
g8
sg179
g8
sg181
g8
sg184
g8
sg186
g8
sg188
g8
sg191
g8
sg194
g8
sg197
g8
sg199
g8
sg201
(I4
I2
tp1124
sg204
g8
sg207
g8
sg209
g8
sg211
g8
sg213
g8
sg216
g8
sg218
g8
sg220
g8
sg223
g8
sg226
g8
sg228
g8
ssI27
(dp1125
g4
g8
sg7
g8
sg10
g8
sg12
g8
sg15
g8
sg17
g8
sg19
g8
sg21
(I2
I1
tp1126
sg24
g8
sg26
g8
sg28
g8
sg30
g8
sg33
g8
sg35
g8
sg37
g8
sg39
g8
sg42
g8
sg44
g8
sg46
g8
sg48
g8
sg50
g8
sg52
g8
sg55
g8
sg57
g8
sg60
(I0
I2
tp1127
sg63
g8
sg66
g8
sg68
g8
sg70
g8
sg72
(I2
I2
tp1128
sg75
g8
sg78
(I2
I2
tp1129
sg81
g8
sg84
g8
sg86
g8
sg88
g8
sg91
g8
sg94
g8
sg97
g8
sg99
(I2
I2
tp1130
sg102
g8
sg104
g8
sg107
g8
sg109
g8
sg111
g8
sg113
(I6
I1
tp1131
sg116
g8
sg119
g8
sg121
g8
sg123
g8
sg125
g8
sg128
g8
sg130
(I4
I1
tp1132
sg133
g8
sg136
g8
sg138
(I2
I1
tp1133
sg141
g8
sg143
g8
sg145
g8
sg147
g8
sg149
g8
sg152
g8
sg155
g8
sg158
g8
sg160
g8
sg163
g8
sg166
g8
sg168
g8
sg171
g8
sg174
g8
sg176
g8
sg179
g8
sg181
g8
sg184
g8
sg186
g8
sg188
g8
sg191
g8
sg194
g8
sg197
g8
sg199
g8
sg201
(I4
I2
tp1134
sg204
g8
sg207
g8
sg209
g8
sg211
g8
sg213
g8
sg216
g8
sg218
g8
sg220
g8
sg223
g8
sg226
g8
sg228
g8
ssI28
(dp1135
g4
(I7
I6
tp1136
sg7
g8
sg10
(I8
I7
tp1137
sg12
(I9
I4
tp1138
sg15
g8
sg17
g8
sg19
g8
sg21
(I8
I1
tp1139
sg24
g8
sg26
g8
sg28
(I7
I6
tp1140
sg30
g8
sg33
g8
sg35
(I10
I5
tp1141
sg37
g8
sg39
(I9
I8
tp1142
sg42
g8
sg44
g8
sg46
g8
sg48
g8
sg50
g8
sg52
(I8
I4
tp1143
sg55
(I6
I8
tp1144
sg57
(I8
I6
tp1145
sg60
(I8
I2
tp1146
sg63
(I8
I6
tp1147
sg66
g8
sg68
g8
sg70
(I9
I8
tp1148
sg72
(I6
I2
tp1149
sg75
g8
sg78
(I8
I2
tp1150
sg81
(I10
I7
tp1151
sg84
g8
sg86
g8
sg88
(I10
I6
tp1152
sg91
(I7
I3
tp1153
sg94
g8
sg97
g8
sg99
(I10
I2
tp1154
sg102
g8
sg104
(I9
I3
tp1155
sg107
g8
sg109
g8
sg111
g8
sg113
(I10
I1
tp1156
sg116
(I5
I5
tp1157
sg119
g8
sg121
g8
sg123
g8
sg125
(I7
I5
tp1158
sg128
g8
sg130
(I10
I1
tp1159
sg133
(I5
I4
tp1160
sg136
g8
sg138
(I8
I1
tp1161
sg141
g8
sg143
g8
sg145
g8
sg147
g8
sg149
g8
sg152
g8
sg155
(I8
I4
tp1162
sg158
g8
sg160
(I7
I3
tp1163
sg163
(I9
I5
tp1164
sg166
g8
sg168
(I8
I7
tp1165
sg171
(I10
I3
tp1166
sg174
g8
sg176
(I9
I8
tp1167
sg179
g8
sg181
(I9
I5
tp1168
sg184
g8
sg186
g8
sg188
(I8
I5
tp1169
sg191
(I8
I3
tp1170
sg194
g8
sg197
g8
sg199
g8
sg201
(I8
I2
tp1171
sg204
(I9
I7
tp1172
sg207
g8
sg209
g8
sg211
g8
sg213
(I9
I7
tp1173
sg216
g8
sg218
(I9
I8
tp1174
sg220
(I9
I3
tp1175
sg223
(I6
I4
tp1176
sg226
g8
sg228
g8
ssI29
(dp1177
g4
(I9
I6
tp1178
sg7
g8
sg10
g8
sg12
(I10
I4
tp1179
sg15
g8
sg17
(I9
I8
tp1180
sg19
g8
sg21
(I10
I1
tp1181
sg24
g8
sg26
g8
sg28
g8
sg30
(I10
I8
tp1182
sg33
g8
sg35
g8
sg37
g8
sg39
(I8
I6
tp1183
sg42
g8
sg44
g8
sg46
g8
sg48
g8
sg50
g8
sg52
(I10
I4
tp1184
sg55
g8
sg57
(I8
I5
tp1185
sg60
(I8
I2
tp1186
sg63
(I9
I6
tp1187
sg66
g8
sg68
g8
sg70
(I10
I8
tp1188
sg72
(I10
I2
tp1189
sg75
g8
sg78
(I10
I2
tp1190
sg81
(I10
I7
tp1191
sg84
g8
sg86
(I10
I7
tp1192
sg88
g8
sg91
(I10
I3
tp1193
sg94
(I9
I7
tp1194
sg97
g8
sg99
(I10
I2
tp1195
sg102
g8
sg104
(I10
I3
tp1196
sg107
g8
sg109
g8
sg111
g8
sg113
(I10
I1
tp1197
sg116
(I10
I5
tp1198
sg119
g8
sg121
g8
sg123
g8
sg125
(I10
I5
tp1199
sg128
g8
sg130
(I10
I1
tp1200
sg133
(I10
I4
tp1201
sg136
g8
sg138
(I10
I1
tp1202
sg141
g8
sg143
g8
sg145
g8
sg147
g8
sg149
g8
sg152
(I10
I7
tp1203
sg155
(I10
I4
tp1204
sg158
g8
sg160
(I10
I3
tp1205
sg163
(I10
I7
tp1206
sg166
g8
sg168
(I10
I5
tp1207
sg171
(I10
I3
tp1208
sg174
g8
sg176
(I10
I8
tp1209
sg179
g8
sg181
(I10
I5
tp1210
sg184
g8
sg186
g8
sg188
(I8
I5
tp1211
sg191
(I10
I3
tp1212
sg194
(I7
I6
tp1213
sg197
g8
sg199
g8
sg201
(I10
I2
tp1214
sg204
(I9
I6
tp1215
sg207
g8
sg209
g8
sg211
g8
sg213
(I9
I7
tp1216
sg216
g8
sg218
g8
sg220
(I10
I3
tp1217
sg223
(I10
I4
tp1218
sg226
g8
sg228
g8
ssI30
(dp1219
g4
g8
sg7
g8
sg10
(I9
I9
tp1220
sg12
(I6
I6
tp1221
sg15
(I10
I8
tp1222
sg17
g8
sg19
g8
sg21
(I9
I7
tp1223
sg24
g8
sg26
g8
sg28
(I8
I6
tp1224
sg30
(I8
I8
tp1225
sg33
g8
sg35
(I7
I5
tp1226
sg37
(I9
I9
tp1227
sg39
(I8
I8
tp1228
sg42
(I6
I5
tp1229
sg44
g8
sg46
g8
sg48
g8
sg50
(I9
I7
tp1230
sg52
(I4
I4
tp1231
sg55
g8
sg57
(I7
I5
tp1232
sg60
(I6
I6
tp1233
sg63
g8
sg66
(I4
I4
tp1234
sg68
g8
sg70
g8
sg72
(I6
I1
tp1235
sg75
(I6
I6
tp1236
sg78
(I6
I1
tp1237
sg81
(I8
I9
tp1238
sg84
g8
sg86
g8
sg88
g8
sg91
g8
sg94
g8
sg97
g8
sg99
(I4
I2
tp1239
sg102
(I10
I8
tp1240
sg104
(I6
I3
tp1241
sg107
(I7
I9
tp1242
sg109
g8
sg111
g8
sg113
(I2
I1
tp1243
sg116
g8
sg119
g8
sg121
g8
sg123
g8
sg125
g8
sg128
g8
sg130
(I4
I1
tp1244
sg133
(I4
I4
tp1245
sg136
g8
sg138
(I2
I1
tp1246
sg141
g8
sg143
g8
sg145
g8
sg147
g8
sg149
g8
sg152
g8
sg155
(I4
I4
tp1247
sg158
g8
sg160
(I4
I3
tp1248
sg163
(I9
I5
tp1249
sg166
g8
sg168
(I7
I7
tp1250
sg171
g8
sg174
g8
sg176
(I10
I8
tp1251
sg179
g8
sg181
g8
sg184
g8
sg186
g8
sg188
(I8
I9
tp1252
sg191
(I2
I3
tp1253
sg194
g8
sg197
g8
sg199
(I9
I7
tp1254
sg201
(I4
I2
tp1255
sg204
g8
sg207
g8
sg209
g8
sg211
g8
sg213
(I6
I7
tp1256
sg216
g8
sg218
g8
sg220
(I4
I3
tp1257
sg223
(I2
I4
tp1258
sg226
g8
sg228
g8
ssI31
(dp1259
g4
(I0
I6
tp1260
sg7
g8
sg10
g8
sg12
g8
sg15
g8
sg17
g8
sg19
g8
sg21
(I8
I1
tp1261
sg24
g8
sg26
g8
sg28
(I7
I6
tp1262
sg30
(I8
I8
tp1263
sg33
g8
sg35
g8
sg37
g8
sg39
(I9
I6
tp1264
sg42
g8
sg44
g8
sg46
g8
sg48
g8
sg50
(I8
I7
tp1265
sg52
(I9
I4
tp1266
sg55
g8
sg57
g8
sg60
(I4
I2
tp1267
sg63
(I9
I6
tp1268
sg66
(I7
I4
tp1269
sg68
g8
sg70
g8
sg72
(I4
I2
tp1270
sg75
g8
sg78
(I6
I2
tp1271
sg81
(I6
I7
tp1272
sg84
g8
sg86
(I9
I7
tp1273
sg88
(I7
I8
tp1274
sg91
(I7
I3
tp1275
sg94
(I9
I8
tp1276
sg97
g8
sg99
(I8
I2
tp1277
sg102
g8
sg104
(I8
I3
tp1278
sg107
g8
sg109
g8
sg111
g8
sg113
(I8
I1
tp1279
sg116
g8
sg119
g8
sg121
g8
sg123
g8
sg125
(I9
I5
tp1280
sg128
g8
sg130
(I6
I1
tp1281
sg133
(I6
I4
tp1282
sg136
(I10
I3
tp1283
sg138
(I6
I1
tp1284
sg141
g8
sg143
g8
sg145
g8
sg147
g8
sg149
(I8
I8
tp1285
sg152
(I8
I7
tp1286
sg155
(I8
I4
tp1287
sg158
g8
sg160
(I6
I3
tp1288
sg163
(I7
I5
tp1289
sg166
(I9
I7
tp1290
sg168
(I8
I5
tp1291
sg171
(I10
I3
tp1292
sg174
g8
sg176
(I8
I8
tp1293
sg179
g8
sg181
(I8
I5
tp1294
sg184
g8
sg186
g8
sg188
(I9
I5
tp1295
sg191
(I8
I3
tp1296
sg194
(I7
I6
tp1297
sg197
g8
sg199
g8
sg201
(I6
I2
tp1298
sg204
g8
sg207
g8
sg209
g8
sg211
g8
sg213
g8
sg216
g8
sg218
g8
sg220
(I8
I3
tp1299
sg223
(I7
I4
tp1300
sg226
g8
sg228
g8
ssI32
(dp1301
g4
g8
sg7
g8
sg10
g8
sg12
g8
sg15
(I10
I8
tp1302
sg17
(I10
I8
tp1303
sg19
g8
sg21
(I8
I1
tp1304
sg24
g8
sg26
g8
sg28
g8
sg30
g8
sg33
g8
sg35
(I10
I5
tp1305
sg37
g8
sg39
(I8
I6
tp1306
sg42
g8
sg44
g8
sg46
g8
sg48
g8
sg50
(I9
I7
tp1307
sg52
(I8
I4
tp1308
sg55
g8
sg57
g8
sg60
(I8
I2
tp1309
sg63
(I9
I6
tp1310
sg66
(I9
I4
tp1311
sg68
g8
sg70
(I8
I8
tp1312
sg72
(I8
I6
tp1313
sg75
g8
sg78
(I6
I2
tp1314
sg81
(I8
I7
tp1315
sg84
g8
sg86
g8
sg88
(I8
I6
tp1316
sg91
(I7
I3
tp1317
sg94
g8
sg97
(I9
I6
tp1318
sg99
(I6
I2
tp1319
sg102
g8
sg104
(I9
I3
tp1320
sg107
g8
sg109
g8
sg111
g8
sg113
(I4
I1
tp1321
sg116
(I7
I5
tp1322
sg119
g8
sg121
g8
sg123
g8
sg125
(I10
I5
tp1323
sg128
g8
sg130
(I6
I1
tp1324
sg133
(I9
I4
tp1325
sg136
(I10
I3
tp1326
sg138
(I8
I1
tp1327
sg141
g8
sg143
g8
sg145
g8
sg147
g8
sg149
g8
sg152
g8
sg155
(I7
I4
tp1328
sg158
g8
sg160
(I9
I3
tp1329
sg163
g8
sg166
(I8
I7
tp1330
sg168
(I7
I5
tp1331
sg171
(I10
I3
tp1332
sg174
g8
sg176
(I10
I8
tp1333
sg179
g8
sg181
g8
sg184
g8
sg186
g8
sg188
(I9
I5
tp1334
sg191
(I8
I3
tp1335
sg194
g8
sg197
g8
sg199
g8
sg201
(I4
I2
tp1336
sg204
g8
sg207
g8
sg209
g8
sg211
g8
sg213
(I8
I7
tp1337
sg216
g8
sg218
g8
sg220
(I9
I3
tp1338
sg223
(I7
I4
tp1339
sg226
g8
sg228
(I10
I7
tp1340
ssI33
(dp1341
g4
(I0
I6
tp1342
sg7
g8
sg10
g8
sg12
(I4
I4
tp1343
sg15
g8
sg17
g8
sg19
g8
sg21
(I4
I1
tp1344
sg24
g8
sg26
g8
sg28
g8
sg30
(I4
I8
tp1345
sg33
g8
sg35
(I6
I7
tp1346
sg37
g8
sg39
(I9
I6
tp1347
sg42
g8
sg44
g8
sg46
g8
sg48
g8
sg50
(I8
I7
tp1348
sg52
(I6
I4
tp1349
sg55
g8
sg57
(I4
I5
tp1350
sg60
(I4
I2
tp1351
sg63
(I6
I6
tp1352
sg66
g8
sg68
g8
sg70
g8
sg72
(I4
I2
tp1353
sg75
(I5
I6
tp1354
sg78
(I2
I2
tp1355
sg81
(I7
I7
tp1356
sg84
g8
sg86
(I7
I7
tp1357
sg88
(I6
I6
tp1358
sg91
(I6
I3
tp1359
sg94
g8
sg97
g8
sg99
(I6
I2
tp1360
sg102
(I8
I8
tp1361
sg104
(I7
I3
tp1362
sg107
g8
sg109
g8
sg111
g8
sg113
(I8
I1
tp1363
sg116
(I5
I8
tp1364
sg119
g8
sg121
g8
sg123
g8
sg125
(I4
I5
tp1365
sg128
g8
sg130
(I4
I1
tp1366
sg133
(I5
I4
tp1367
sg136
g8
sg138
(I4
I1
tp1368
sg141
g8
sg143
g8
sg145
g8
sg147
g8
sg149
(I8
I8
tp1369
sg152
(I8
I7
tp1370
sg155
(I4
I4
tp1371
sg158
g8
sg160
(I4
I3
tp1372
sg163
(I5
I7
tp1373
sg166
g8
sg168
(I6
I5
tp1374
sg171
g8
sg174
g8
sg176
(I6
I8
tp1375
sg179
g8
sg181
g8
sg184
g8
sg186
g8
sg188
(I4
I5
tp1376
sg191
(I6
I3
tp1377
sg194
g8
sg197
g8
sg199
g8
sg201
(I4
I2
tp1378
sg204
g8
sg207
g8
sg209
g8
sg211
g8
sg213
g8
sg216
g8
sg218
g8
sg220
(I6
I3
tp1379
sg223
(I4
I4
tp1380
sg226
g8
sg228
g8
ssI34
(dp1381
g4
(I0
I6
tp1382
sg7
g8
sg10
g8
sg12
g8
sg15
(I10
I8
tp1383
sg17
g8
sg19
g8
sg21
(I6
I1
tp1384
sg24
g8
sg26
g8
sg28
(I8
I6
tp1385
sg30
g8
sg33
g8
sg35
g8
sg37
g8
sg39
(I9
I6
tp1386
sg42
g8
sg44
g8
sg46
g8
sg48
g8
sg50
(I8
I7
tp1387
sg52
(I8
I4
tp1388
sg55
g8
sg57
g8
sg60
(I6
I2
tp1389
sg63
(I7
I6
tp1390
sg66
(I6
I4
tp1391
sg68
g8
sg70
g8
sg72
(I4
I2
tp1392
sg75
g8
sg78
(I6
I2
tp1393
sg81
(I8
I7
tp1394
sg84
g8
sg86
(I9
I7
tp1395
sg88
(I8
I8
tp1396
sg91
(I9
I3
tp1397
sg94
(I9
I8
tp1398
sg97
g8
sg99
(I8
I2
tp1399
sg102
g8
sg104
(I8
I3
tp1400
sg107
g8
sg109
g8
sg111
g8
sg113
(I8
I1
tp1401
sg116
g8
sg119
g8
sg121
g8
sg123
g8
sg125
(I9
I5
tp1402
sg128
g8
sg130
(I6
I1
tp1403
sg133
(I6
I4
tp1404
sg136
(I10
I3
tp1405
sg138
(I4
I1
tp1406
sg141
g8
sg143
g8
sg145
g8
sg147
g8
sg149
(I9
I8
tp1407
sg152
g8
sg155
(I7
I4
tp1408
sg158
g8
sg160
(I6
I3
tp1409
sg163
(I7
I5
tp1410
sg166
(I10
I7
tp1411
sg168
(I8
I5
tp1412
sg171
(I10
I3
tp1413
sg174
g8
sg176
g8
sg179
g8
sg181
(I9
I5
tp1414
sg184
g8
sg186
g8
sg188
(I9
I5
tp1415
sg191
(I9
I3
tp1416
sg194
(I8
I6
tp1417
sg197
g8
sg199
g8
sg201
(I4
I2
tp1418
sg204
g8
sg207
g8
sg209
g8
sg211
g8
sg213
(I10
I7
tp1419
sg216
g8
sg218
g8
sg220
(I8
I3
tp1420
sg223
(I5
I4
tp1421
sg226
g8
sg228
g8
ssI35
(dp1422
g4
(I5
I6
tp1423
sg7
g8
sg10
g8
sg12
g8
sg15
(I9
I8
tp1424
sg17
(I7
I7
tp1425
sg19
g8
sg21
(I6
I1
tp1426
sg24
g8
sg26
(I10
I5
tp1427
sg28
(I9
I6
tp1428
sg30
g8
sg33
g8
sg35
g8
sg37
g8
sg39
(I9
I8
tp1429
sg42
g8
sg44
g8
sg46
g8
sg48
g8
sg50
g8
sg52
(I7
I4
tp1430
sg55
g8
sg57
(I7
I5
tp1431
sg60
(I6
I2
tp1432
sg63
(I8
I6
tp1433
sg66
(I6
I4
tp1434
sg68
g8
sg70
g8
sg72
(I6
I1
tp1435
sg75
g8
sg78
(I6
I2
tp1436
sg81
(I7
I7
tp1437
sg84
(I5
I8
tp1438
sg86
g8
sg88
(I7
I6
tp1439
sg91
(I6
I3
tp1440
sg94
(I9
I8
tp1441
sg97
g8
sg99
(I6
I2
tp1442
sg102
g8
sg104
(I8
I3
tp1443
sg107
g8
sg109
g8
sg111
g8
sg113
(I6
I1
tp1444
sg116
g8
sg119
g8
sg121
g8
sg123
g8
sg125
(I10
I5
tp1445
sg128
g8
sg130
(I8
I1
tp1446
sg133
(I6
I4
tp1447
sg136
g8
sg138
(I6
I1
tp1448
sg141
g8
sg143
g8
sg145
g8
sg147
g8
sg149
g8
sg152
g8
sg155
(I5
I4
tp1449
sg158
(I4
I7
tp1450
sg160
(I7
I3
tp1451
sg163
(I7
I5
tp1452
sg166
g8
sg168
(I7
I7
tp1453
sg171
g8
sg174
g8
sg176
(I10
I8
tp1454
sg179
g8
sg181
g8
sg184
g8
sg186
g8
sg188
(I6
I5
tp1455
sg191
(I6
I3
tp1456
sg194
g8
sg197
g8
sg199
g8
sg201
(I8
I2
tp1457
sg204
g8
sg207
g8
sg209
g8
sg211
g8
sg213
g8
sg216
g8
sg218
g8
sg220
(I8
I3
tp1458
sg223
(I5
I4
tp1459
sg226
g8
sg228
g8
ssI36
(dp1460
g4
(I2
I6
tp1461
sg7
g8
sg10
g8
sg12
g8
sg15
g8
sg17
g8
sg19
(I2
I10
tp1462
sg21
(I6
I1
tp1463
sg24
g8
sg26
g8
sg28
(I2
I8
tp1464
sg30
(I4
I8
tp1465
sg33
g8
sg35
(I5
I5
tp1466
sg37
g8
sg39
(I8
I6
tp1467
sg42
g8
sg44
g8
sg46
g8
sg48
g8
sg50
(I6
I7
tp1468
sg52
(I6
I4
tp1469
sg55
g8
sg57
(I5
I5
tp1470
sg60
(I2
I2
tp1471
sg63
g8
sg66
(I5
I4
tp1472
sg68
g8
sg70
(I5
I8
tp1473
sg72
(I2
I2
tp1474
sg75
(I2
I6
tp1475
sg78
(I6
I2
tp1476
sg81
(I6
I7
tp1477
sg84
g8
sg86
g8
sg88
(I4
I6
tp1478
sg91
(I5
I3
tp1479
sg94
g8
sg97
g8
sg99
(I2
I2
tp1480
sg102
(I2
I10
tp1481
sg104
(I6
I3
tp1482
sg107
g8
sg109
g8
sg111
g8
sg113
(I4
I1
tp1483
sg116
(I2
I8
tp1484
sg119
g8
sg121
(I7
I7
tp1485
sg123
g8
sg125
(I4
I5
tp1486
sg128
g8
sg130
(I6
I1
tp1487
sg133
(I4
I4
tp1488
sg136
g8
sg138
(I6
I1
tp1489
sg141
g8
sg143
g8
sg145
g8
sg147
g8
sg149
(I4
I8
tp1490
sg152
(I8
I7
tp1491
sg155
(I7
I4
tp1492
sg158
g8
sg160
(I7
I3
tp1493
sg163
(I5
I7
tp1494
sg166
g8
sg168
(I6
I5
tp1495
sg171
g8
sg174
g8
sg176
(I4
I8
tp1496
sg179
g8
sg181
g8
sg184
g8
sg186
g8
sg188
(I4
I5
tp1497
sg191
(I6
I3
tp1498
sg194
g8
sg197
g8
sg199
g8
sg201
(I4
I2
tp1499
sg204
g8
sg207
g8
sg209
g8
sg211
g8
sg213
g8
sg216
g8
sg218
g8
sg220
(I6
I3
tp1500
sg223
(I4
I4
tp1501
sg226
(I5
I7
tp1502
sg228
(I4
I7
tp1503
ssI37
(dp1504
g4
(I5
I6
tp1505
sg7
g8
sg10
(I10
I8
tp1506
sg12
g8
sg15
g8
sg17
g8
sg19
g8
sg21
(I8
I1
tp1507
sg24
g8
sg26
(I8
I5
tp1508
sg28
g8
sg30
g8
sg33
g8
sg35
(I9
I7
tp1509
sg37
g8
sg39
(I8
I8
tp1510
sg42
g8
sg44
g8
sg46
g8
sg48
g8
sg50
g8
sg52
(I7
I4
tp1511
sg55
g8
sg57
(I10
I5
tp1512
sg60
(I8
I2
tp1513
sg63
(I7
I6
tp1514
sg66
(I7
I4
tp1515
sg68
g8
sg70
g8
sg72
(I8
I1
tp1516
sg75
(I6
I6
tp1517
sg78
(I6
I2
tp1518
sg81
g8
sg84
g8
sg86
g8
sg88
(I8
I8
tp1519
sg91
(I5
I3
tp1520
sg94
(I10
I7
tp1521
sg97
(I7
I6
tp1522
sg99
(I6
I2
tp1523
sg102
g8
sg104
(I8
I3
tp1524
sg107
g8
sg109
g8
sg111
g8
sg113
(I6
I1
tp1525
sg116
(I7
I5
tp1526
sg119
g8
sg121
g8
sg123
g8
sg125
g8
sg128
g8
sg130
(I6
I1
tp1527
sg133
(I7
I4
tp1528
sg136
g8
sg138
(I4
I1
tp1529
sg141
g8
sg143
g8
sg145
g8
sg147
g8
sg149
g8
sg152
g8
sg155
(I7
I4
tp1530
sg158
g8
sg160
(I9
I3
tp1531
sg163
(I9
I7
tp1532
sg166
g8
sg168
(I8
I7
tp1533
sg171
g8
sg174
g8
sg176
(I8
I8
tp1534
sg179
g8
sg181
(I9
I5
tp1535
sg184
g8
sg186
g8
sg188
(I5
I5
tp1536
sg191
(I8
I3
tp1537
sg194
g8
sg197
g8
sg199
(I8
I7
tp1538
sg201
(I4
I2
tp1539
sg204
g8
sg207
g8
sg209
g8
sg211
g8
sg213
g8
sg216
g8
sg218
g8
sg220
(I9
I3
tp1540
sg223
(I5
I4
tp1541
sg226
g8
sg228
g8
ssI38
(dp1542
g4
g8
sg7
g8
sg10
g8
sg12
g8
sg15
g8
sg17
g8
sg19
g8
sg21
(I8
I1
tp1543
sg24
g8
sg26
g8
sg28
g8
sg30
g8
sg33
g8
sg35
g8
sg37
g8
sg39
g8
sg42
g8
sg44
g8
sg46
g8
sg48
g8
sg50
g8
sg52
g8
sg55
g8
sg57
g8
sg60
(I0
I2
tp1544
sg63
g8
sg66
g8
sg68
g8
sg70
g8
sg72
(I2
I2
tp1545
sg75
g8
sg78
(I2
I2
tp1546
sg81
g8
sg84
g8
sg86
g8
sg88
g8
sg91
g8
sg94
g8
sg97
g8
sg99
(I2
I2
tp1547
sg102
g8
sg104
g8
sg107
g8
sg109
g8
sg111
g8
sg113
(I6
I1
tp1548
sg116
g8
sg119
g8
sg121
g8
sg123
g8
sg125
g8
sg128
g8
sg130
(I8
I1
tp1549
sg133
g8
sg136
g8
sg138
(I8
I1
tp1550
sg141
g8
sg143
g8
sg145
g8
sg147
g8
sg149
g8
sg152
g8
sg155
g8
sg158
g8
sg160
g8
sg163
g8
sg166
g8
sg168
g8
sg171
g8
sg174
g8
sg176
g8
sg179
g8
sg181
g8
sg184
g8
sg186
g8
sg188
g8
sg191
g8
sg194
g8
sg197
g8
sg199
g8
sg201
(I2
I2
tp1551
sg204
g8
sg207
g8
sg209
g8
sg211
g8
sg213
g8
sg216
g8
sg218
g8
sg220
g8
sg223
g8
sg226
g8
sg228
g8
ssI39
(dp1552
g4
(I8
I6
tp1553
sg7
g8
sg10
(I10
I7
tp1554
sg12
(I8
I6
tp1555
sg15
g8
sg17
g8
sg19
g8
sg21
(I8
I1
tp1556
sg24
g8
sg26
g8
sg28
(I8
I8
tp1557
sg30
(I9
I8
tp1558
sg33
g8
sg35
g8
sg37
g8
sg39
(I9
I6
tp1559
sg42
g8
sg44
g8
sg46
g8
sg48
g8
sg50
g8
sg52
(I9
I4
tp1560
sg55
g8
sg57
(I7
I5
tp1561
sg60
(I8
I2
tp1562
sg63
(I8
I6
tp1563
sg66
(I9
I4
tp1564
sg68
g8
sg70
g8
sg72
(I8
I2
tp1565
sg75
g8
sg78
(I6
I2
tp1566
sg81
(I9
I7
tp1567
sg84
g8
sg86
g8
sg88
(I10
I8
tp1568
sg91
(I7
I3
tp1569
sg94
g8
sg97
(I10
I6
tp1570
sg99
(I10
I2
tp1571
sg102
g8
sg104
(I9
I3
tp1572
sg107
g8
sg109
g8
sg111
g8
sg113
(I8
I1
tp1573
sg116
(I8
I5
tp1574
sg119
g8
sg121
g8
sg123
g8
sg125
(I10
I5
tp1575
sg128
g8
sg130
(I6
I1
tp1576
sg133
(I9
I4
tp1577
sg136
(I10
I3
tp1578
sg138
(I10
I1
tp1579
sg141
g8
sg143
(I9
I6
tp1580
sg145
g8
sg147
g8
sg149
g8
sg152
(I10
I7
tp1581
sg155
(I8
I4
tp1582
sg158
g8
sg160
(I8
I3
tp1583
sg163
(I8
I7
tp1584
sg166
g8
sg168
(I9
I5
tp1585
sg171
(I10
I2
tp1586
sg174
g8
sg176
(I10
I8
tp1587
sg179
g8
sg181
g8
sg184
g8
sg186
g8
sg188
(I7
I5
tp1588
sg191
(I9
I3
tp1589
sg194
g8
sg197
g8
sg199
g8
sg201
(I8
I2
tp1590
sg204
(I9
I7
tp1591
sg207
g8
sg209
g8
sg211
g8
sg213
(I9
I8
tp1592
sg216
g8
sg218
g8
sg220
(I10
I3
tp1593
sg223
(I8
I4
tp1594
sg226
g8
sg228
g8
ssI40
(dp1595
g4
(I7
I6
tp1596
sg7
g8
sg10
(I10
I8
tp1597
sg12
(I9
I4
tp1598
sg15
g8
sg17
g8
sg19
g8
sg21
(I6
I1
tp1599
sg24
g8
sg26
g8
sg28
g8
sg30
g8
sg33
g8
sg35
g8
sg37
g8
sg39
(I10
I6
tp1600
sg42
g8
sg44
g8
sg46
g8
sg48
g8
sg50
g8
sg52
(I8
I4
tp1601
sg55
g8
sg57
(I5
I5
tp1602
sg60
(I6
I2
tp1603
sg63
(I6
I6
tp1604
sg66
g8
sg68
g8
sg70
g8
sg72
(I6
I1
tp1605
sg75
(I5
I7
tp1606
sg78
(I6
I2
tp1607
sg81
g8
sg84
g8
sg86
g8
sg88
(I7
I8
tp1608
sg91
(I7
I3
tp1609
sg94
g8
sg97
(I7
I6
tp1610
sg99
(I6
I2
tp1611
sg102
g8
sg104
(I8
I3
tp1612
sg107
g8
sg109
g8
sg111
g8
sg113
(I8
I1
tp1613
sg116
(I8
I5
tp1614
sg119
(I9
I6
tp1615
sg121
g8
sg123
g8
sg125
(I10
I5
tp1616
sg128
g8
sg130
(I6
I1
tp1617
sg133
(I7
I4
tp1618
sg136
g8
sg138
(I6
I1
tp1619
sg141
g8
sg143
g8
sg145
g8
sg147
g8
sg149
(I8
I8
tp1620
sg152
g8
sg155
(I7
I4
tp1621
sg158
g8
sg160
(I8
I3
tp1622
sg163
g8
sg166
g8
sg168
(I7
I7
tp1623
sg171
(I10
I3
tp1624
sg174
g8
sg176
(I7
I8
tp1625
sg179
g8
sg181
(I8
I5
tp1626
sg184
g8
sg186
g8
sg188
(I7
I5
tp1627
sg191
(I8
I3
tp1628
sg194
g8
sg197
g8
sg199
g8
sg201
(I8
I2
tp1629
sg204
(I4
I7
tp1630
sg207
g8
sg209
(I0
I7
tp1631
sg211
g8
sg213
(I6
I7
tp1632
sg216
g8
sg218
g8
sg220
(I8
I3
tp1633
sg223
(I5
I4
tp1634
sg226
g8
sg228
g8
ssI41
(dp1635
g4
g8
sg7
g8
sg10
g8
sg12
g8
sg15
(I10
I8
tp1636
sg17
g8
sg19
g8
sg21
(I8
I1
tp1637
sg24
g8
sg26
g8
sg28
(I9
I6
tp1638
sg30
(I9
I8
tp1639
sg33
g8
sg35
g8
sg37
g8
sg39
(I9
I6
tp1640
sg42
g8
sg44
g8
sg46
g8
sg48
g8
sg50
(I8
I7
tp1641
sg52
(I8
I4
tp1642
sg55
g8
sg57
(I5
I5
tp1643
sg60
(I4
I2
tp1644
sg63
(I6
I6
tp1645
sg66
(I9
I4
tp1646
sg68
g8
sg70
g8
sg72
(I2
I2
tp1647
sg75
g8
sg78
(I6
I1
tp1648
sg81
(I9
I7
tp1649
sg84
g8
sg86
(I9
I7
tp1650
sg88
(I7
I6
tp1651
sg91
(I5
I3
tp1652
sg94
g8
sg97
g8
sg99
(I6
I2
tp1653
sg102
g8
sg104
(I8
I3
tp1654
sg107
g8
sg109
g8
sg111
g8
sg113
(I8
I1
tp1655
sg116
g8
sg119
g8
sg121
g8
sg123
g8
sg125
(I9
I5
tp1656
sg128
g8
sg130
(I8
I1
tp1657
sg133
(I6
I4
tp1658
sg136
(I10
I3
tp1659
sg138
(I6
I1
tp1660
sg141
(I10
I8
tp1661
sg143
g8
sg145
g8
sg147
g8
sg149
(I9
I8
tp1662
sg152
(I10
I7
tp1663
sg155
(I5
I4
tp1664
sg158
g8
sg160
(I4
I3
tp1665
sg163
(I10
I5
tp1666
sg166
g8
sg168
(I8
I5
tp1667
sg171
g8
sg174
g8
sg176
(I8
I8
tp1668
sg179
g8
sg181
g8
sg184
g8
sg186
g8
sg188
(I8
I5
tp1669
sg191
(I10
I3
tp1670
sg194
(I6
I6
tp1671
sg197
g8
sg199
g8
sg201
(I8
I2
tp1672
sg204
g8
sg207
g8
sg209
(I7
I7
tp1673
sg211
g8
sg213
g8
sg216
g8
sg218
g8
sg220
(I6
I3
tp1674
sg223
(I4
I4
tp1675
sg226
g8
sg228
g8
ssI42
(dp1676
g4
(I5
I6
tp1677
sg7
g8
sg10
g8
sg12
g8
sg15
g8
sg17
g8
sg19
g8
sg21
(I6
I1
tp1678
sg24
g8
sg26
g8
sg28
g8
sg30
(I7
I8
tp1679
sg33
g8
sg35
(I5
I7
tp1680
sg37
g8
sg39
(I7
I8
tp1681
sg42
g8
sg44
g8
sg46
g8
sg48
g8
sg50
g8
sg52
(I7
I4
tp1682
sg55
g8
sg57
(I6
I5
tp1683
sg60
(I4
I6
tp1684
sg63
g8
sg66
(I5
I4
tp1685
sg68
g8
sg70
(I6
I8
tp1686
sg72
(I4
I2
tp1687
sg75
(I2
I6
tp1688
sg78
(I6
I2
tp1689
sg81
g8
sg84
g8
sg86
(I7
I7
tp1690
sg88
(I4
I6
tp1691
sg91
(I6
I3
tp1692
sg94
g8
sg97
g8
sg99
(I6
I2
tp1693
sg102
g8
sg104
(I10
I3
tp1694
sg107
g8
sg109
g8
sg111
g8
sg113
(I8
I1
tp1695
sg116
(I4
I5
tp1696
sg119
g8
sg121
g8
sg123
g8
sg125
(I5
I5
tp1697
sg128
g8
sg130
(I8
I1
tp1698
sg133
(I5
I4
tp1699
sg136
g8
sg138
(I6
I1
tp1700
sg141
g8
sg143
g8
sg145
g8
sg147
g8
sg149
g8
sg152
g8
sg155
(I4
I4
tp1701
sg158
g8
sg160
(I7
I3
tp1702
sg163
(I6
I7
tp1703
sg166
g8
sg168
(I6
I7
tp1704
sg171
g8
sg174
g8
sg176
(I9
I8
tp1705
sg179
g8
sg181
(I4
I5
tp1706
sg184
g8
sg186
g8
sg188
(I5
I5
tp1707
sg191
(I7
I3
tp1708
sg194
(I4
I8
tp1709
sg197
g8
sg199
g8
sg201
(I6
I2
tp1710
sg204
g8
sg207
(I7
I8
tp1711
sg209
(I7
I7
tp1712
sg211
g8
sg213
g8
sg216
g8
sg218
g8
sg220
(I7
I3
tp1713
sg223
(I6
I4
tp1714
sg226
g8
sg228
g8
ssI43
(dp1715
g4
g8
sg7
g8
sg10
g8
sg12
g8
sg15
g8
sg17
g8
sg19
g8
sg21
(I6
I1
tp1716
sg24
g8
sg26
g8
sg28
g8
sg30
g8
sg33
g8
sg35
g8
sg37
g8
sg39
g8
sg42
g8
sg44
g8
sg46
g8
sg48
g8
sg50
g8
sg52
g8
sg55
g8
sg57
g8
sg60
(I2
I2
tp1717
sg63
g8
sg66
g8
sg68
g8
sg70
g8
sg72
(I4
I2
tp1718
sg75
g8
sg78
(I4
I2
tp1719
sg81
g8
sg84
g8
sg86
g8
sg88
g8
sg91
g8
sg94
g8
sg97
g8
sg99
(I4
I2
tp1720
sg102
g8
sg104
g8
sg107
g8
sg109
g8
sg111
g8
sg113
(I2
I1
tp1721
sg116
g8
sg119
g8
sg121
g8
sg123
g8
sg125
g8
sg128
g8
sg130
(I6
I1
tp1722
sg133
g8
sg136
g8
sg138
(I2
I1
tp1723
sg141
g8
sg143
g8
sg145
g8
sg147
g8
sg149
g8
sg152
g8
sg155
g8
sg158
g8
sg160
g8
sg163
g8
sg166
g8
sg168
g8
sg171
g8
sg174
g8
sg176
g8
sg179
g8
sg181
g8
sg184
g8
sg186
g8
sg188
g8
sg191
g8
sg194
g8
sg197
g8
sg199
g8
sg201
(I2
I2
tp1724
sg204
g8
sg207
g8
sg209
g8
sg211
g8
sg213
g8
sg216
g8
sg218
g8
sg220
g8
sg223
g8
sg226
g8
sg228
g8
ssI44
(dp1725
g4
(I9
I6
tp1726
sg7
g8
sg10
g8
sg12
(I8
I4
tp1727
sg15
g8
sg17
g8
sg19
g8
sg21
(I8
I1
tp1728
sg24
g8
sg26
g8
sg28
(I7
I8
tp1729
sg30
g8
sg33
g8
sg35
g8
sg37
g8
sg39
(I10
I6
tp1730
sg42
g8
sg44
g8
sg46
g8
sg48
g8
sg50
g8
sg52
(I8
I4
tp1731
sg55
g8
sg57
(I6
I5
tp1732
sg60
(I8
I2
tp1733
sg63
(I8
I6
tp1734
sg66
g8
sg68
g8
sg70
g8
sg72
(I6
I2
tp1735
sg75
(I9
I6
tp1736
sg78
(I10
I2
tp1737
sg81
g8
sg84
g8
sg86
g8
sg88
(I7
I8
tp1738
sg91
(I7
I3
tp1739
sg94
g8
sg97
(I9
I6
tp1740
sg99
(I10
I2
tp1741
sg102
g8
sg104
(I10
I3
tp1742
sg107
g8
sg109
g8
sg111
g8
sg113
(I8
I1
tp1743
sg116
(I7
I5
tp1744
sg119
g8
sg121
g8
sg123
g8
sg125
(I8
I5
tp1745
sg128
g8
sg130
(I8
I1
tp1746
sg133
(I8
I4
tp1747
sg136
(I10
I3
tp1748
sg138
(I8
I1
tp1749
sg141
g8
sg143
g8
sg145
g8
sg147
(I0
I8
tp1750
sg149
(I9
I8
tp1751
sg152
g8
sg155
(I8
I4
tp1752
sg158
g8
sg160
(I10
I3
tp1753
sg163
(I9
I7
tp1754
sg166
(I8
I7
tp1755
sg168
(I8
I5
tp1756
sg171
(I10
I3
tp1757
sg174
g8
sg176
(I8
I8
tp1758
sg179
g8
sg181
(I9
I5
tp1759
sg184
g8
sg186
g8
sg188
(I9
I5
tp1760
sg191
(I10
I3
tp1761
sg194
g8
sg197
g8
sg199
g8
sg201
(I4
I2
tp1762
sg204
(I6
I7
tp1763
sg207
g8
sg209
(I8
I7
tp1764
sg211
g8
sg213
(I8
I7
tp1765
sg216
g8
sg218
g8
sg220
(I9
I3
tp1766
sg223
(I7
I4
tp1767
sg226
g8
sg228
g8
ssI45
(dp1768
g4
g8
sg7
g8
sg10
g8
sg12
g8
sg15
g8
sg17
(I10
I7
tp1769
sg19
g8
sg21
(I4
I1
tp1770
sg24
g8
sg26
g8
sg28
g8
sg30
(I7
I8
tp1771
sg33
g8
sg35
g8
sg37
g8
sg39
(I9
I6
tp1772
sg42
g8
sg44
g8
sg46
g8
sg48
g8
sg50
g8
sg52
(I7
I4
tp1773
sg55
g8
sg57
(I4
I5
tp1774
sg60
(I6
I2
tp1775
sg63
g8
sg66
(I8
I4
tp1776
sg68
g8
sg70
g8
sg72
(I7
I6
tp1777
sg75
g8
sg78
(I4
I2
tp1778
sg81
g8
sg84
g8
sg86
(I8
I7
tp1779
sg88
(I5
I6
tp1780
sg91
(I7
I3
tp1781
sg94
g8
sg97
(I7
I6
tp1782
sg99
(I8
I2
tp1783
sg102
g8
sg104
(I8
I3
tp1784
sg107
g8
sg109
(I9
I7
tp1785
sg111
g8
sg113
(I8
I1
tp1786
sg116
(I6
I5
tp1787
sg119
(I10
I6
tp1788
sg121
g8
sg123
g8
sg125
g8
sg128
g8
sg130
(I6
I1
tp1789
sg133
(I6
I4
tp1790
sg136
(I10
I3
tp1791
sg138
(I6
I1
tp1792
sg141
g8
sg143
g8
sg145
g8
sg147
g8
sg149
(I10
I8
tp1793
sg152
g8
sg155
(I5
I4
tp1794
sg158
g8
sg160
(I4
I3
tp1795
sg163
(I6
I7
tp1796
sg166
g8
sg168
(I6
I5
tp1797
sg171
(I10
I3
tp1798
sg174
g8
sg176
(I7
I8
tp1799
sg179
g8
sg181
(I7
I5
tp1800
sg184
g8
sg186
g8
sg188
(I7
I5
tp1801
sg191
(I8
I3
tp1802
sg194
g8
sg197
g8
sg199
g8
sg201
(I6
I2
tp1803
sg204
g8
sg207
g8
sg209
g8
sg211
g8
sg213
(I8
I8
tp1804
sg216
g8
sg218
g8
sg220
(I7
I3
tp1805
sg223
(I7
I4
tp1806
sg226
g8
sg228
g8
ssI46
(dp1807
g4
g8
sg7
g8
sg10
g8
sg12
g8
sg15
g8
sg17
g8
sg19
g8
sg21
(I6
I1
tp1808
sg24
g8
sg26
g8
sg28
g8
sg30
(I4
I8
tp1809
sg33
g8
sg35
(I5
I7
tp1810
sg37
g8
sg39
(I10
I6
tp1811
sg42
g8
sg44
g8
sg46
g8
sg48
g8
sg50
g8
sg52
(I10
I4
tp1812
sg55
g8
sg57
(I5
I5
tp1813
sg60
(I4
I2
tp1814
sg63
(I7
I6
tp1815
sg66
(I5
I4
tp1816
sg68
g8
sg70
(I5
I8
tp1817
sg72
(I2
I2
tp1818
sg75
(I4
I6
tp1819
sg78
(I4
I2
tp1820
sg81
(I10
I7
tp1821
sg84
g8
sg86
(I6
I7
tp1822
sg88
(I6
I6
tp1823
sg91
(I6
I3
tp1824
sg94
g8
sg97
g8
sg99
(I4
I2
tp1825
sg102
g8
sg104
(I7
I3
tp1826
sg107
g8
sg109
g8
sg111
g8
sg113
(I6
I1
tp1827
sg116
(I7
I5
tp1828
sg119
g8
sg121
g8
sg123
g8
sg125
(I5
I5
tp1829
sg128
g8
sg130
(I4
I1
tp1830
sg133
(I5
I4
tp1831
sg136
g8
sg138
(I4
I1
tp1832
sg141
(I8
I8
tp1833
sg143
g8
sg145
g8
sg147
g8
sg149
(I8
I8
tp1834
sg152
g8
sg155
(I7
I4
tp1835
sg158
g8
sg160
(I6
I3
tp1836
sg163
(I6
I7
tp1837
sg166
g8
sg168
(I7
I5
tp1838
sg171
g8
sg174
g8
sg176
(I8
I8
tp1839
sg179
g8
sg181
g8
sg184
g8
sg186
g8
sg188
(I6
I5
tp1840
sg191
(I8
I3
tp1841
sg194
(I4
I8
tp1842
sg197
g8
sg199
g8
sg201
(I4
I2
tp1843
sg204
g8
sg207
g8
sg209
(I0
I7
tp1844
sg211
g8
sg213
g8
sg216
g8
sg218
g8
sg220
(I8
I3
tp1845
sg223
(I4
I4
tp1846
sg226
g8
sg228
g8
ssI47
(dp1847
g4
(I9
I6
tp1848
sg7
g8
sg10
g8
sg12
g8
sg15
g8
sg17
g8
sg19
g8
sg21
(I8
I1
tp1849
sg24
g8
sg26
g8
sg28
(I7
I8
tp1850
sg30
g8
sg33
g8
sg35
g8
sg37
g8
sg39
(I9
I6
tp1851
sg42
g8
sg44
g8
sg46
g8
sg48
g8
sg50
g8
sg52
(I8
I4
tp1852
sg55
g8
sg57
(I7
I5
tp1853
sg60
(I6
I2
tp1854
sg63
(I8
I6
tp1855
sg66
(I10
I4
tp1856
sg68
g8
sg70
(I10
I8
tp1857
sg72
(I4
I2
tp1858
sg75
(I9
I6
tp1859
sg78
(I8
I2
tp1860
sg81
g8
sg84
g8
sg86
g8
sg88
(I9
I6
tp1861
sg91
(I6
I3
tp1862
sg94
(I10
I7
tp1863
sg97
g8
sg99
(I8
I2
tp1864
sg102
g8
sg104
(I10
I3
tp1865
sg107
g8
sg109
g8
sg111
g8
sg113
(I10
I1
tp1866
sg116
(I8
I5
tp1867
sg119
g8
sg121
g8
sg123
g8
sg125
(I9
I5
tp1868
sg128
g8
sg130
(I8
I1
tp1869
sg133
(I6
I4
tp1870
sg136
(I10
I3
tp1871
sg138
(I8
I1
tp1872
sg141
g8
sg143
(I10
I6
tp1873
sg145
g8
sg147
g8
sg149
(I9
I8
tp1874
sg152
g8
sg155
(I7
I4
tp1875
sg158
g8
sg160
(I8
I3
tp1876
sg163
(I9
I7
tp1877
sg166
g8
sg168
(I8
I7
tp1878
sg171
g8
sg174
g8
sg176
(I10
I8
tp1879
sg179
g8
sg181
(I9
I5
tp1880
sg184
g8
sg186
g8
sg188
(I9
I5
tp1881
sg191
(I10
I3
tp1882
sg194
g8
sg197
g8
sg199
g8
sg201
(I6
I2
tp1883
sg204
(I9
I7
tp1884
sg207
g8
sg209
g8
sg211
g8
sg213
(I8
I8
tp1885
sg216
g8
sg218
g8
sg220
(I8
I3
tp1886
sg223
(I7
I4
tp1887
sg226
g8
sg228
g8
ssI48
(dp1888
g4
g8
sg7
g8
sg10
g8
sg12
g8
sg15
g8
sg17
g8
sg19
g8
sg21
(I4
I1
tp1889
sg24
g8
sg26
g8
sg28
g8
sg30
g8
sg33
g8
sg35
g8
sg37
g8
sg39
g8
sg42
g8
sg44
g8
sg46
g8
sg48
g8
sg50
g8
sg52
g8
sg55
g8
sg57
g8
sg60
(I0
I2
tp1890
sg63
g8
sg66
g8
sg68
g8
sg70
g8
sg72
(I2
I2
tp1891
sg75
g8
sg78
(I2
I2
tp1892
sg81
g8
sg84
g8
sg86
g8
sg88
g8
sg91
g8
sg94
g8
sg97
g8
sg99
(I2
I2
tp1893
sg102
g8
sg104
g8
sg107
g8
sg109
g8
sg111
g8
sg113
(I6
I1
tp1894
sg116
g8
sg119
g8
sg121
g8
sg123
g8
sg125
g8
sg128
g8
sg130
(I6
I1
tp1895
sg133
g8
sg136
g8
sg138
(I6
I1
tp1896
sg141
g8
sg143
g8
sg145
g8
sg147
g8
sg149
g8
sg152
g8
sg155
g8
sg158
g8
sg160
g8
sg163
g8
sg166
g8
sg168
g8
sg171
g8
sg174
g8
sg176
g8
sg179
g8
sg181
g8
sg184
g8
sg186
g8
sg188
g8
sg191
g8
sg194
g8
sg197
g8
sg199
g8
sg201
(I2
I2
tp1897
sg204
g8
sg207
g8
sg209
g8
sg211
g8
sg213
g8
sg216
g8
sg218
g8
sg220
g8
sg223
g8
sg226
g8
sg228
g8
ssI49
(dp1898
g4
g8
sg7
g8
sg10
g8
sg12
(I9
I4
tp1899
sg15
g8
sg17
(I10
I8
tp1900
sg19
g8
sg21
(I6
I1
tp1901
sg24
g8
sg26
g8
sg28
g8
sg30
g8
sg33
g8
sg35
(I8
I5
tp1902
sg37
g8
sg39
(I9
I6
tp1903
sg42
g8
sg44
g8
sg46
g8
sg48
g8
sg50
g8
sg52
(I10
I4
tp1904
sg55
g8
sg57
(I7
I6
tp1905
sg60
(I6
I2
tp1906
sg63
(I8
I6
tp1907
sg66
g8
sg68
g8
sg70
g8
sg72
(I2
I2
tp1908
sg75
g8
sg78
(I8
I2
tp1909
sg81
g8
sg84
g8
sg86
g8
sg88
(I6
I8
tp1910
sg91
(I7
I3
tp1911
sg94
g8
sg97
(I8
I6
tp1912
sg99
(I8
I2
tp1913
sg102
g8
sg104
(I8
I3
tp1914
sg107
g8
sg109
g8
sg111
g8
sg113
(I6
I1
tp1915
sg116
(I10
I5
tp1916
sg119
(I10
I6
tp1917
sg121
(I8
I7
tp1918
sg123
g8
sg125
(I10
I5
tp1919
sg128
g8
sg130
(I8
I1
tp1920
sg133
(I10
I4
tp1921
sg136
(I10
I3
tp1922
sg138
(I6
I1
tp1923
sg141
g8
sg143
g8
sg145
g8
sg147
g8
sg149
(I6
I8
tp1924
sg152
g8
sg155
(I8
I4
tp1925
sg158
g8
sg160
(I9
I3
tp1926
sg163
(I7
I7
tp1927
sg166
g8
sg168
(I8
I5
tp1928
sg171
(I10
I3
tp1929
sg174
g8
sg176
(I8
I8
tp1930
sg179
g8
sg181
(I10
I5
tp1931
sg184
g8
sg186
(I10
I7
tp1932
sg188
(I9
I5
tp1933
sg191
(I7
I3
tp1934
sg194
g8
sg197
g8
sg199
g8
sg201
(I4
I2
tp1935
sg204
(I6
I7
tp1936
sg207
g8
sg209
g8
sg211
g8
sg213
(I10
I7
tp1937
sg216
g8
sg218
g8
sg220
(I10
I3
tp1938
sg223
(I10
I4
tp1939
sg226
g8
sg228
(I7
I7
tp1940
ssI50
(dp1941
g4
(I8
I6
tp1942
sg7
g8
sg10
g8
sg12
(I9
I4
tp1943
sg15
g8
sg17
g8
sg19
g8
sg21
(I6
I1
tp1944
sg24
g8
sg26
g8
sg28
g8
sg30
g8
sg33
g8
sg35
g8
sg37
g8
sg39
(I9
I6
tp1945
sg42
g8
sg44
g8
sg46
g8
sg48
g8
sg50
(I9
I7
tp1946
sg52
(I7
I4
tp1947
sg55
g8
sg57
(I10
I5
tp1948
sg60
(I8
I2
tp1949
sg63
(I8
I6
tp1950
sg66
g8
sg68
g8
sg70
(I10
I8
tp1951
sg72
(I8
I2
tp1952
sg75
(I10
I6
tp1953
sg78
(I8
I2
tp1954
sg81
g8
sg84
g8
sg86
g8
sg88
g8
sg91
(I9
I3
tp1955
sg94
(I9
I7
tp1956
sg97
g8
sg99
(I8
I2
tp1957
sg102
g8
sg104
(I8
I3
tp1958
sg107
g8
sg109
g8
sg111
g8
sg113
(I6
I1
tp1959
sg116
(I8
I5
tp1960
sg119
g8
sg121
g8
sg123
(I10
I3
tp1961
sg125
(I9
I5
tp1962
sg128
g8
sg130
(I8
I1
tp1963
sg133
(I8
I4
tp1964
sg136
(I10
I3
tp1965
sg138
(I8
I1
tp1966
sg141
g8
sg143
(I10
I6
tp1967
sg145
g8
sg147
g8
sg149
(I9
I8
tp1968
sg152
g8
sg155
(I7
I4
tp1969
sg158
g8
sg160
(I8
I3
tp1970
sg163
g8
sg166
g8
sg168
g8
sg171
g8
sg174
g8
sg176
(I7
I8
tp1971
sg179
g8
sg181
(I9
I5
tp1972
sg184
g8
sg186
g8
sg188
(I7
I5
tp1973
sg191
(I10
I3
tp1974
sg194
(I6
I6
tp1975
sg197
g8
sg199
g8
sg201
(I6
I2
tp1976
sg204
(I9
I7
tp1977
sg207
g8
sg209
(I8
I7
tp1978
sg211
g8
sg213
(I6
I8
tp1979
sg216
g8
sg218
(I8
I8
tp1980
sg220
(I8
I3
tp1981
sg223
(I8
I4
tp1982
sg226
g8
sg228
g8
ssI51
(dp1983
g4
(I9
I6
tp1984
sg7
g8
sg10
(I10
I7
tp1985
sg12
(I9
I4
tp1986
sg15
g8
sg17
g8
sg19
g8
sg21
(I10
I1
tp1987
sg24
g8
sg26
g8
sg28
(I9
I6
tp1988
sg30
(I9
I8
tp1989
sg33
g8
sg35
g8
sg37
g8
sg39
(I9
I6
tp1990
sg42
g8
sg44
g8
sg46
g8
sg48
g8
sg50
g8
sg52
(I10
I4
tp1991
sg55
g8
sg57
g8
sg60
(I8
I2
tp1992
sg63
(I10
I6
tp1993
sg66
g8
sg68
g8
sg70
(I10
I8
tp1994
sg72
(I10
I2
tp1995
sg75
g8
sg78
(I10
I2
tp1996
sg81
(I10
I7
tp1997
sg84
g8
sg86
g8
sg88
g8
sg91
(I10
I3
tp1998
sg94
g8
sg97
(I10
I6
tp1999
sg99
(I10
I2
tp2000
sg102
g8
sg104
(I10
I3
tp2001
sg107
g8
sg109
g8
sg111
g8
sg113
(I10
I1
tp2002
sg116
(I8
I5
tp2003
sg119
g8
sg121
g8
sg123
g8
sg125
(I9
I5
tp2004
sg128
g8
sg130
(I10
I1
tp2005
sg133
(I8
I4
tp2006
sg136
g8
sg138
(I8
I1
tp2007
sg141
g8
sg143
g8
sg145
g8
sg147
g8
sg149
(I10
I8
tp2008
sg152
(I10
I7
tp2009
sg155
(I9
I4
tp2010
sg158
g8
sg160
(I9
I3
tp2011
sg163
(I9
I5
tp2012
sg166
g8
sg168
(I10
I5
tp2013
sg171
(I10
I2
tp2014
sg174
g8
sg176
(I8
I8
tp2015
sg179
g8
sg181
(I10
I5
tp2016
sg184
g8
sg186
g8
sg188
(I7
I5
tp2017
sg191
(I9
I3
tp2018
sg194
g8
sg197
g8
sg199
g8
sg201
(I10
I2
tp2019
sg204
(I8
I7
tp2020
sg207
g8
sg209
g8
sg211
g8
sg213
(I9
I8
tp2021
sg216
g8
sg218
g8
sg220
(I9
I3
tp2022
sg223
(I8
I4
tp2023
sg226
g8
sg228
g8
ssI52
(dp2024
g4
(I9
I6
tp2025
sg7
g8
sg10
(I10
I8
tp2026
sg12
(I9
I4
tp2027
sg15
g8
sg17
g8
sg19
g8
sg21
(I6
I1
tp2028
sg24
g8
sg26
g8
sg28
(I10
I6
tp2029
sg30
(I10
I8
tp2030
sg33
g8
sg35
g8
sg37
(I10
I9
tp2031
sg39
(I7
I6
tp2032
sg42
g8
sg44
g8
sg46
g8
sg48
(I10
I9
tp2033
sg50
g8
sg52
(I7
I4
tp2034
sg55
g8
sg57
g8
sg60
(I8
I2
tp2035
sg63
(I10
I6
tp2036
sg66
g8
sg68
g8
sg70
(I10
I8
tp2037
sg72
(I10
I2
tp2038
sg75
g8
sg78
(I8
I2
tp2039
sg81
g8
sg84
g8
sg86
g8
sg88
g8
sg91
(I9
I3
tp2040
sg94
g8
sg97
(I10
I6
tp2041
sg99
(I10
I2
tp2042
sg102
g8
sg104
(I10
I3
tp2043
sg107
g8
sg109
g8
sg111
g8
sg113
(I6
I1
tp2044
sg116
(I10
I5
tp2045
sg119
g8
sg121
g8
sg123
(I10
I3
tp2046
sg125
(I10
I5
tp2047
sg128
g8
sg130
(I8
I1
tp2048
sg133
(I9
I4
tp2049
sg136
g8
sg138
(I6
I1
tp2050
sg141
g8
sg143
g8
sg145
(I10
I9
tp2051
sg147
g8
sg149
g8
sg152
g8
sg155
(I9
I4
tp2052
sg158
g8
sg160
(I9
I3
tp2053
sg163
(I10
I5
tp2054
sg166
g8
sg168
(I9
I5
tp2055
sg171
g8
sg174
g8
sg176
(I9
I8
tp2056
sg179
g8
sg181
(I8
I5
tp2057
sg184
g8
sg186
g8
sg188
(I8
I5
tp2058
sg191
(I8
I3
tp2059
sg194
g8
sg197
g8
sg199
g8
sg201
(I10
I2
tp2060
sg204
g8
sg207
g8
sg209
g8
sg211
g8
sg213
(I8
I8
tp2061
sg216
g8
sg218
g8
sg220
(I10
I3
tp2062
sg223
(I8
I4
tp2063
sg226
g8
sg228
g8
ssI53
(dp2064
g4
(I10
I6
tp2065
sg7
g8
sg10
(I10
I7
tp2066
sg12
(I10
I4
tp2067
sg15
g8
sg17
(I10
I8
tp2068
sg19
g8
sg21
(I8
I1
tp2069
sg24
g8
sg26
g8
sg28
g8
sg30
g8
sg33
g8
sg35
g8
sg37
g8
sg39
(I10
I6
tp2070
sg42
g8
sg44
g8
sg46
g8
sg48
g8
sg50
g8
sg52
(I10
I4
tp2071
sg55
g8
sg57
(I10
I5
tp2072
sg60
(I10
I2
tp2073
sg63
(I10
I6
tp2074
sg66
g8
sg68
g8
sg70
g8
sg72
(I10
I2
tp2075
sg75
(I9
I7
tp2076
sg78
(I10
I2
tp2077
sg81
g8
sg84
g8
sg86
(I10
I7
tp2078
sg88
(I10
I8
tp2079
sg91
(I9
I3
tp2080
sg94
g8
sg97
g8
sg99
(I10
I2
tp2081
sg102
g8
sg104
(I10
I3
tp2082
sg107
g8
sg109
g8
sg111
(I10
I8
tp2083
sg113
(I10
I1
tp2084
sg116
(I9
I5
tp2085
sg119
g8
sg121
g8
sg123
g8
sg125
(I9
I5
tp2086
sg128
g8
sg130
(I8
I1
tp2087
sg133
(I10
I4
tp2088
sg136
(I10
I2
tp2089
sg138
(I8
I1
tp2090
sg141
g8
sg143
g8
sg145
g8
sg147
g8
sg149
(I10
I8
tp2091
sg152
g8
sg155
(I9
I4
tp2092
sg158
g8
sg160
(I10
I3
tp2093
sg163
g8
sg166
g8
sg168
(I10
I5
tp2094
sg171
(I10
I3
tp2095
sg174
g8
sg176
g8
sg179
g8
sg181
(I10
I5
tp2096
sg184
g8
sg186
g8
sg188
(I10
I5
tp2097
sg191
(I10
I3
tp2098
sg194
(I9
I6
tp2099
sg197
g8
sg199
g8
sg201
(I10
I2
tp2100
sg204
(I10
I6
tp2101
sg207
g8
sg209
(I10
I7
tp2102
sg211
g8
sg213
(I10
I7
tp2103
sg216
g8
sg218
g8
sg220
(I10
I3
tp2104
sg223
(I9
I4
tp2105
sg226
g8
sg228
g8
ssI54
(dp2106
g4
(I9
I6
tp2107
sg7
g8
sg10
g8
sg12
(I9
I4
tp2108
sg15
g8
sg17
(I8
I7
tp2109
sg19
g8
sg21
(I6
I1
tp2110
sg24
g8
sg26
g8
sg28
g8
sg30
g8
sg33
g8
sg35
g8
sg37
g8
sg39
(I9
I8
tp2111
sg42
g8
sg44
(I10
I5
tp2112
sg46
g8
sg48
g8
sg50
(I9
I7
tp2113
sg52
(I8
I4
tp2114
sg55
g8
sg57
(I10
I6
tp2115
sg60
(I10
I2
tp2116
sg63
(I8
I6
tp2117
sg66
g8
sg68
g8
sg70
(I9
I8
tp2118
sg72
(I8
I2
tp2119
sg75
g8
sg78
(I8
I2
tp2120
sg81
g8
sg84
g8
sg86
g8
sg88
g8
sg91
(I7
I3
tp2121
sg94
(I7
I8
tp2122
sg97
(I9
I6
tp2123
sg99
(I8
I2
tp2124
sg102
g8
sg104
(I10
I3
tp2125
sg107
g8
sg109
(I8
I7
tp2126
sg111
g8
sg113
(I6
I1
tp2127
sg116
(I8
I5
tp2128
sg119
(I10
I6
tp2129
sg121
g8
sg123
g8
sg125
(I10
I5
tp2130
sg128
g8
sg130
(I8
I1
tp2131
sg133
(I9
I4
tp2132
sg136
g8
sg138
(I6
I1
tp2133
sg141
g8
sg143
g8
sg145
g8
sg147
g8
sg149
g8
sg152
g8
sg155
(I8
I4
tp2134
sg158
g8
sg160
(I10
I3
tp2135
sg163
g8
sg166
g8
sg168
(I10
I5
tp2136
sg171
g8
sg174
g8
sg176
(I7
I8
tp2137
sg179
g8
sg181
(I9
I5
tp2138
sg184
g8
sg186
g8
sg188
(I7
I5
tp2139
sg191
(I8
I3
tp2140
sg194
g8
sg197
g8
sg199
g8
sg201
(I8
I2
tp2141
sg204
(I7
I7
tp2142
sg207
g8
sg209
g8
sg211
g8
sg213
(I9
I8
tp2143
sg216
g8
sg218
g8
sg220
(I10
I3
tp2144
sg223
(I6
I4
tp2145
sg226
g8
sg228
g8
ssI55
(dp2146
g4
(I2
I6
tp2147
sg7
g8
sg10
g8
sg12
(I9
I4
tp2148
sg15
g8
sg17
g8
sg19
g8
sg21
(I6
I1
tp2149
sg24
g8
sg26
g8
sg28
g8
sg30
(I7
I8
tp2150
sg33
g8
sg35
g8
sg37
g8
sg39
(I9
I6
tp2151
sg42
g8
sg44
g8
sg46
g8
sg48
g8
sg50
g8
sg52
(I7
I4
tp2152
sg55
g8
sg57
g8
sg60
(I6
I2
tp2153
sg63
(I7
I6
tp2154
sg66
g8
sg68
g8
sg70
(I9
I8
tp2155
sg72
(I4
I2
tp2156
sg75
g8
sg78
(I4
I2
tp2157
sg81
g8
sg84
g8
sg86
(I5
I7
tp2158
sg88
(I7
I6
tp2159
sg91
(I6
I3
tp2160
sg94
g8
sg97
(I7
I6
tp2161
sg99
(I6
I2
tp2162
sg102
g8
sg104
(I7
I3
tp2163
sg107
g8
sg109
g8
sg111
g8
sg113
(I8
I1
tp2164
sg116
(I5
I5
tp2165
sg119
g8
sg121
g8
sg123
g8
sg125
(I8
I5
tp2166
sg128
g8
sg130
(I6
I1
tp2167
sg133
(I4
I4
tp2168
sg136
g8
sg138
(I6
I1
tp2169
sg141
g8
sg143
g8
sg145
g8
sg147
g8
sg149
g8
sg152
(I7
I7
tp2170
sg155
(I5
I4
tp2171
sg158
g8
sg160
(I6
I3
tp2172
sg163
(I7
I7
tp2173
sg166
g8
sg168
(I7
I5
tp2174
sg171
g8
sg174
g8
sg176
(I7
I8
tp2175
sg179
(I8
I7
tp2176
sg181
(I7
I5
tp2177
sg184
g8
sg186
g8
sg188
(I6
I5
tp2178
sg191
(I6
I3
tp2179
sg194
g8
sg197
g8
sg199
g8
sg201
(I6
I2
tp2180
sg204
g8
sg207
(I9
I8
tp2181
sg209
g8
sg211
g8
sg213
(I7
I7
tp2182
sg216
g8
sg218
(I7
I8
tp2183
sg220
(I7
I3
tp2184
sg223
(I6
I4
tp2185
sg226
g8
sg228
g8
ssI56
(dp2186
g4
(I8
I6
tp2187
sg7
g8
sg10
g8
sg12
(I8
I6
tp2188
sg15
(I10
I8
tp2189
sg17
g8
sg19
g8
sg21
(I6
I1
tp2190
sg24
g8
sg26
g8
sg28
(I7
I8
tp2191
sg30
g8
sg33
g8
sg35
g8
sg37
g8
sg39
(I10
I6
tp2192
sg42
g8
sg44
g8
sg46
g8
sg48
g8
sg50
g8
sg52
(I9
I4
tp2193
sg55
g8
sg57
(I9
I5
tp2194
sg60
(I8
I2
tp2195
sg63
(I8
I6
tp2196
sg66
(I10
I4
tp2197
sg68
g8
sg70
g8
sg72
(I6
I2
tp2198
sg75
g8
sg78
(I8
I2
tp2199
sg81
(I10
I7
tp2200
sg84
g8
sg86
(I8
I7
tp2201
sg88
g8
sg91
(I8
I3
tp2202
sg94
g8
sg97
(I7
I6
tp2203
sg99
(I8
I2
tp2204
sg102
g8
sg104
(I9
I3
tp2205
sg107
g8
sg109
(I8
I7
tp2206
sg111
g8
sg113
(I8
I1
tp2207
sg116
(I7
I5
tp2208
sg119
g8
sg121
g8
sg123
g8
sg125
(I10
I5
tp2209
sg128
g8
sg130
(I8
I1
tp2210
sg133
(I9
I4
tp2211
sg136
(I10
I3
tp2212
sg138
(I10
I1
tp2213
sg141
(I10
I8
tp2214
sg143
(I9
I6
tp2215
sg145
g8
sg147
g8
sg149
g8
sg152
g8
sg155
(I8
I4
tp2216
sg158
g8
sg160
(I10
I3
tp2217
sg163
(I7
I7
tp2218
sg166
g8
sg168
(I9
I5
tp2219
sg171
g8
sg174
g8
sg176
(I10
I8
tp2220
sg179
(I7
I7
tp2221
sg181
g8
sg184
g8
sg186
g8
sg188
(I8
I5
tp2222
sg191
(I9
I3
tp2223
sg194
g8
sg197
g8
sg199
g8
sg201
(I8
I2
tp2224
sg204
g8
sg207
g8
sg209
g8
sg211
g8
sg213
(I7
I7
tp2225
sg216
g8
sg218
g8
sg220
(I9
I3
tp2226
sg223
(I10
I4
tp2227
sg226
g8
sg228
g8
ssI57
(dp2228
g4
(I9
I6
tp2229
sg7
g8
sg10
g8
sg12
(I10
I4
tp2230
sg15
g8
sg17
(I10
I8
tp2231
sg19
g8
sg21
(I10
I1
tp2232
sg24
g8
sg26
g8
sg28
g8
sg30
g8
sg33
g8
sg35
g8
sg37
g8
sg39
(I10
I6
tp2233
sg42
g8
sg44
g8
sg46
g8
sg48
g8
sg50
(I9
I7
tp2234
sg52
(I8
I4
tp2235
sg55
g8
sg57
(I10
I5
tp2236
sg60
(I8
I2
tp2237
sg63
(I8
I6
tp2238
sg66
g8
sg68
g8
sg70
g8
sg72
(I8
I2
tp2239
sg75
(I10
I6
tp2240
sg78
(I10
I2
tp2241
sg81
g8
sg84
g8
sg86
g8
sg88
(I8
I8
tp2242
sg91
(I8
I3
tp2243
sg94
(I9
I7
tp2244
sg97
(I10
I6
tp2245
sg99
(I10
I2
tp2246
sg102
g8
sg104
(I9
I3
tp2247
sg107
g8
sg109
g8
sg111
g8
sg113
(I8
I1
tp2248
sg116
(I9
I5
tp2249
sg119
g8
sg121
g8
sg123
g8
sg125
(I9
I5
tp2250
sg128
g8
sg130
(I8
I1
tp2251
sg133
(I9
I4
tp2252
sg136
(I10
I3
tp2253
sg138
(I8
I1
tp2254
sg141
g8
sg143
g8
sg145
g8
sg147
g8
sg149
(I10
I8
tp2255
sg152
g8
sg155
(I9
I4
tp2256
sg158
g8
sg160
(I10
I3
tp2257
sg163
g8
sg166
g8
sg168
(I8
I5
tp2258
sg171
(I10
I3
tp2259
sg174
g8
sg176
(I7
I8
tp2260
sg179
g8
sg181
(I10
I5
tp2261
sg184
g8
sg186
g8
sg188
(I10
I5
tp2262
sg191
(I9
I3
tp2263
sg194
g8
sg197
g8
sg199
g8
sg201
(I6
I2
tp2264
sg204
(I9
I7
tp2265
sg207
g8
sg209
(I9
I7
tp2266
sg211
g8
sg213
(I10
I7
tp2267
sg216
g8
sg218
g8
sg220
(I10
I3
tp2268
sg223
(I8
I4
tp2269
sg226
g8
sg228
g8
ssI58
(dp2270
g4
g8
sg7
g8
sg10
g8
sg12
(I6
I6
tp2271
sg15
(I8
I8
tp2272
sg17
(I6
I7
tp2273
sg19
g8
sg21
(I6
I1
tp2274
sg24
g8
sg26
g8
sg28
(I9
I6
tp2275
sg30
(I4
I8
tp2276
sg33
g8
sg35
(I6
I5
tp2277
sg37
g8
sg39
(I8
I8
tp2278
sg42
g8
sg44
g8
sg46
g8
sg48
g8
sg50
(I9
I7
tp2279
sg52
(I6
I4
tp2280
sg55
g8
sg57
(I7
I5
tp2281
sg60
(I6
I6
tp2282
sg63
g8
sg66
(I4
I4
tp2283
sg68
g8
sg70
g8
sg72
(I8
I1
tp2284
sg75
(I5
I6
tp2285
sg78
(I2
I2
tp2286
sg81
(I9
I7
tp2287
sg84
g8
sg86
g8
sg88
g8
sg91
(I5
I3
tp2288
sg94
g8
sg97
g8
sg99
(I6
I2
tp2289
sg102
(I10
I8
tp2290
sg104
(I8
I3
tp2291
sg107
g8
sg109
g8
sg111
g8
sg113
(I8
I3
tp2292
sg116
g8
sg119
g8
sg121
g8
sg123
g8
sg125
(I7
I5
tp2293
sg128
g8
sg130
(I6
I1
tp2294
sg133
(I5
I4
tp2295
sg136
g8
sg138
(I4
I1
tp2296
sg141
(I8
I8
tp2297
sg143
g8
sg145
g8
sg147
g8
sg149
g8
sg152
(I7
I7
tp2298
sg155
(I6
I4
tp2299
sg158
g8
sg160
(I6
I3
tp2300
sg163
(I9
I5
tp2301
sg166
g8
sg168
(I7
I7
tp2302
sg171
g8
sg174
g8
sg176
(I7
I8
tp2303
sg179
g8
sg181
g8
sg184
g8
sg186
g8
sg188
(I4
I5
tp2304
sg191
(I4
I3
tp2305
sg194
g8
sg197
g8
sg199
g8
sg201
(I4
I2
tp2306
sg204
g8
sg207
g8
sg209
g8
sg211
g8
sg213
g8
sg216
g8
sg218
g8
sg220
(I6
I3
tp2307
sg223
(I2
I4
tp2308
sg226
g8
sg228
g8
ssI59
(dp2309
g4
g8
sg7
g8
sg10
g8
sg12
g8
sg15
(I9
I8
tp2310
sg17
g8
sg19
g8
sg21
(I4
I1
tp2311
sg24
g8
sg26
g8
sg28
(I6
I6
tp2312
sg30
g8
sg33
g8
sg35
(I5
I5
tp2313
sg37
g8
sg39
(I6
I8
tp2314
sg42
g8
sg44
g8
sg46
g8
sg48
g8
sg50
(I6
I7
tp2315
sg52
(I6
I4
tp2316
sg55
g8
sg57
g8
sg60
(I4
I2
tp2317
sg63
(I4
I6
tp2318
sg66
(I5
I4
tp2319
sg68
g8
sg70
(I7
I8
tp2320
sg72
(I4
I1
tp2321
sg75
g8
sg78
(I2
I2
tp2322
sg81
(I9
I7
tp2323
sg84
g8
sg86
(I7
I7
tp2324
sg88
(I5
I6
tp2325
sg91
(I5
I3
tp2326
sg94
g8
sg97
g8
sg99
(I6
I2
tp2327
sg102
g8
sg104
(I4
I3
tp2328
sg107
g8
sg109
g8
sg111
g8
sg113
(I6
I1
tp2329
sg116
g8
sg119
g8
sg121
g8
sg123
g8
sg125
(I4
I5
tp2330
sg128
g8
sg130
(I4
I1
tp2331
sg133
(I4
I4
tp2332
sg136
g8
sg138
(I4
I1
tp2333
sg141
(I8
I8
tp2334
sg143
g8
sg145
g8
sg147
g8
sg149
g8
sg152
(I8
I7
tp2335
sg155
(I4
I4
tp2336
sg158
g8
sg160
(I4
I3
tp2337
sg163
(I6
I5
tp2338
sg166
(I4
I7
tp2339
sg168
(I6
I5
tp2340
sg171
(I10
I3
tp2341
sg174
g8
sg176
(I7
I8
tp2342
sg179
g8
sg181
g8
sg184
g8
sg186
g8
sg188
(I4
I5
tp2343
sg191
(I7
I3
tp2344
sg194
(I6
I6
tp2345
sg197
g8
sg199
g8
sg201
(I4
I2
tp2346
sg204
g8
sg207
g8
sg209
g8
sg211
g8
sg213
g8
sg216
g8
sg218
(I9
I8
tp2347
sg220
(I4
I3
tp2348
sg223
(I5
I4
tp2349
sg226
g8
sg228
g8
ssI60
(dp2350
g4
(I6
I6
tp2351
sg7
g8
sg10
(I10
I7
tp2352
sg12
g8
sg15
(I10
I8
tp2353
sg17
(I9
I8
tp2354
sg19
g8
sg21
(I8
I1
tp2355
sg24
g8
sg26
g8
sg28
(I8
I6
tp2356
sg30
g8
sg33
g8
sg35
g8
sg37
g8
sg39
(I8
I8
tp2357
sg42
g8
sg44
g8
sg46
g8
sg48
g8
sg50
g8
sg52
(I10
I4
tp2358
sg55
g8
sg57
g8
sg60
(I8
I2
tp2359
sg63
(I8
I6
tp2360
sg66
(I9
I4
tp2361
sg68
g8
sg70
g8
sg72
(I2
I2
tp2362
sg75
g8
sg78
(I8
I2
tp2363
sg81
(I6
I7
tp2364
sg84
g8
sg86
g8
sg88
(I7
I6
tp2365
sg91
(I6
I3
tp2366
sg94
g8
sg97
g8
sg99
(I4
I2
tp2367
sg102
g8
sg104
(I10
I3
tp2368
sg107
g8
sg109
g8
sg111
g8
sg113
(I6
I1
tp2369
sg116
(I8
I5
tp2370
sg119
g8
sg121
g8
sg123
g8
sg125
(I10
I5
tp2371
sg128
g8
sg130
(I6
I1
tp2372
sg133
(I8
I4
tp2373
sg136
g8
sg138
(I6
I1
tp2374
sg141
g8
sg143
g8
sg145
g8
sg147
g8
sg149
g8
sg152
g8
sg155
(I8
I4
tp2375
sg158
g8
sg160
(I10
I3
tp2376
sg163
(I8
I5
tp2377
sg166
g8
sg168
(I7
I7
tp2378
sg171
g8
sg174
g8
sg176
(I10
I8
tp2379
sg179
g8
sg181
(I10
I5
tp2380
sg184
g8
sg186
g8
sg188
(I6
I5
tp2381
sg191
(I8
I3
tp2382
sg194
g8
sg197
g8
sg199
g8
sg201
(I6
I2
tp2383
sg204
(I8
I7
tp2384
sg207
g8
sg209
g8
sg211
g8
sg213
(I10
I7
tp2385
sg216
g8
sg218
g8
sg220
(I10
I3
tp2386
sg223
(I7
I4
tp2387
sg226
g8
sg228
g8
ss.